(dp1
F65994752
I1
sF4358146
I1
sF72089607
I-1
sF47579150
I1
sF52461585
I1
sF44072978
I-1
sF80248854
I1
sF41877527
I1
sF11403289
I1
sF2883622
I1
sF37388334
I-1
sF49512507
I-1
sF24969282
I1
sF77135939
I1
sF3768408
I1
sF74154073
I1
sF71991386
I1
sF82706527
I1
sF34111584
I-1
sF53313633
I1
sF63209570
I-1
sF72613905
I1
sF40140904
I1
sF67600494
I-1
sF92700790
I1
sF10092667
I1
sF87031830
I0
sF12320902
I1
sF31894209
I1
sF77922441
I1
sF35258507
I0
sF38633622
I1
sF42139811
I1
sF84410539
I0
sF30015661
I1
sF86409399
I-1
sF34996413
I1
sF28775797
I0
sF54886594
I-1
sF40861893
I1
sF32473287
I1
sF92012744
I1
sF31949015
I0
sF95289561
I1
sF88867036
I0
sF38568160
I1
sF91717868
I-1
sF43450608
I1
sF39649526
I-1
sF43385097
I1
sF70254859
I1
sF7635215
I1
sF2982170
I1
sF99680542
I1
sF48234788
I-1
sF66683177
I-1
sF13664565
I1
sF7176508
I1
sF33554750
I0
sF88113477
I0
sF89162055
I-1
sF84902217
I1
sF91586893
I-1
sF57246031
I1
sF75759955
I1
sF76677464
I1
sF82149721
I1
sF72712546
I1
sF18907496
I-1
sF89850222
I1
sF11927919
I0
sF47841655
I0
sF2228603
I0
sF81101194
I-1
sF30048652
I1
sF62194076
I1
sF47022508
I1
sF85033389
I1
sF77758898
I-1
sF60621238
I1
sF7831991
I0
sF62816701
I-1
sF13468094
I1
sF20808132
I-1
sF86213063
I-1
sF5210570
I1
sF99779024
I1
sF9142741
I1
sF21234137
I-1
sF56361441
I1
sF61047267
I-1
sF20251114
I1
sF34505203
I-1
sF25821685
I-1
sF71827959
I0
sF19431932
I-1
sF32440831
I0
sF75727361
I0
sF11600388
I0
sF81101323
I1
sF7242255
I1
sF94437909
I-1
sF49938972
I1
sF66388509
I1
sF91161121
I-1
sF20283941
I1
sF45646375
I1
sF23724584
I1
sF45777450
I1
sF6914609
I-1
sF83132980
I1
sF17826358
I1
sF45023799
I1
sF447925
I0
sF54002240
I1
sF25264709
I1
sF40043079
I0
sF68780617
I1
sF96535124
I-1
sF58065494
I1
sF57791929
I0
sF26215005
I1
sF59572830
I1
sF92308067
I-1
sF27099751
I0
sF37093993
I1
sF52953707
I1
sF6750831
I1
sF295536
I1
sF23396977
I1
sF3965564
I1
sF29557374
I0
sF90473095
I1
sF73269899
I-1
sF63111825
I1
sF5603995
I1
sF11769285
I-1
sF78381732
I0
sF39027366
I1
sF53740207
I1
sF38372018
I1
sF4620981
I1
sF43352759
I1
sF18776761
I0
sF24314559
I1
sF10027712
I1
sF12092108
I1
sF44630733
I1
sF63813675
I0
sF19595994
I1
sF47907558
I1
sF2753255
I1
sF17531624
I-1
sF11764457
I1
sF19792624
I1
sF60298707
I-1
sF78021369
I0
sF14025474
I0
sF43385607
I0
sF75563796
I-1
sF62358293
I1
sF44860190
I1
sF75170595
I-1
sF40665917
I1
sF46863841
I1
sF66847565
I0
sF93307021
I1
sF97452883
I-1
sF61473620
I1
sF35941177
I1
sF23003993
I1
sF66159452
I1
sF49480544
I-1
sF67044203
I0
sF31720308
I0
sF42632053
I1
sF9929591
I1
sF81331066
I1
sF79004540
I0
sF29885317
I1
sF44172169
I1
sF39158668
I1
sF36012943
I1
sF9503638
I1
sF52364186
I0
sF45876123
I1
sF92177309
I0
sF49611678
I1
sF43352993
I-1
sF41233222
I1
sF48497579
I1
sF77235131
I1
sF52954047
I0
sF36635587
I0
sF53543876
I1
sF74777542
I1
sF34145224
I1
sF67470281
I0
sF95552459
I-1
sF64160719
I1
sF29033428
I1
sF50201579
I1
sF96764908
I1
sF47547386
I1
sF11437056
I0
sF45843457
I1
sF41288709
I-1
sF3376137
I1
sF94235479
I-1
sF72111618
I0
sF64181765
I-1
sF74351649
I1
sF90604580
I-1
sF42173481
I1
sF64783407
I1
sF87557169
I-1
sF10421299
I0
sF45611455
I-1
sF15434807
I1
sF18908216
I1
sF71959618
I0
sF52266055
I-1
sF43091023
I1
sF38863952
I-1
sF57312339
I1
sF21267541
I1
sF89261148
I1
sF14943333
I1
sF74941549
I1
sF48595133
I-1
sF12027012
I1
sF58492037
I1
sF55084167
I0
sF87753866
I1
sF69305484
I1
sF17925261
I1
sF85066896
I-1
sF49382545
I1
sF49677462
I1
sF39650462
I1
sF78054570
I1
sF78251181
I1
sF52004015
I0
sF90506422
I1
sF86475959
I1
sF48923836
I0
sF96339134
I1
sF90211520
I1
sF39847112
I1
sF35259593
I0
sF87010167
I1
sF63145164
I1
sF21660878
I0
sF43058390
I1
sF73073882
I1
sF39617760
I1
sF8226019
I1
sF93385500
I0
sF27044732
I1
sF49677549
I1
sF28765055
I0
sF75465980
I-1
sF34014477
I1
sF28771600
I-1
sF86181142
I1
sF51314905
I1
sF62096666
I1
sF22185247
I0
sF63007622
I-1
sF77628711
I1
sF70845738
I0
sF14517551
I0
sF86103603
I1
sF41714997
I-1
sF62883129
I-1
sF20120895
I0
sF13698369
I1
sF22283588
I1
sF21628231
I1
sF33850698
I1
sF77759823
I0
sF93521232
I1
sF26248543
I0
sF76055910
I-1
sF64783719
I0
sF19334505
I0
sF95356267
I1
sF329076
I1
sF21792117
I-1
sF66935
I0
sF18220411
I1
sF31032702
I1
sF62915967
I1
sF27067783
I1
sF29820309
I0
sF65701270
I-1
sF95323543
I1
sF35554721
I0
sF2655655
I1
sF97486252
I0
sF15173049
I1
sF85624256
I1
sF1574345
I0
sF36373964
I1
sF33719760
I1
sF74057171
I1
sF76482012
I1
sF28083688
I0
sF77432301
I-1
sF56919535
I1
sF52299248
I0
sF33195505
I1
sF89490932
I1
sF5244409
I0
sF81987066
I1
sF29853180
I-1
sF22382077
I0
sF62686719
I-1
sF49907205
I1
sF4195860
I1
sF85624345
I0
sF70321692
I1
sF33424930
I-1
sF68093483
I1
sF35325493
I1
sF23004737
I1
sF18122306
I0
sF34506307
I1
sF2709089
I1
sF79955530
I1
sF18122319
I-1
sF85001808
I0
sF47973973
I1
sF81987160
I-1
sF65898074
I-1
sF96929372
I1
sF97912430
I1
sF17598073
I1
sF36636286
I1
sF7374468
I0
sF6555282
I-1
sF91588244
I1
sF47548058
I1
sF92538523
I0
sF12224175
I0
sF92538545
I1
sF94897842
I0
sF91489971
I1
sF79136436
I-1
sF34408117
I0
sF47449784
I1
sF35489473
I0
sF69273288
I1
sF92767948
I0
sF49219282
I1
sF24887587
I1
sF33228503
I0
sF83691224
I1
sF39651036
I0
sF40699613
I1
sF30508769
I1
sF14550755
I1
sF61247363
I1
sF15107825
I1
sF94537458
I1
sF65103426
I1
sF84182777
I-1
sF23136014
I1
sF81463060
I0
sF38340375
I1
sF90507040
I0
sF21301025
I1
sF25298722
I1
sF50071334
I1
sF32114472
I0
sF12125994
I1
sF78087992
I-1
sF51709753
I0
sF39159610
I1
sF26511169
I1
sF27831265
I1
sF77813388
I0
sF91745250
I-1
sF67405647
I1
sF30474234
I-1
sF86738772
I1
sF5900119
I0
sF25560922
I1
sF21596015
I-1
sF15566711
I1
sF15823632
I-1
sF48859019
I1
sF48465808
I0
sF47843217
I1
sF84543378
I1
sF44304277
I1
sF89360278
I1
sF84019098
I1
sF36689562
I1
sF26216350
I1
sF25102239
I1
sF28215205
I-1
sF94242726
I0
sF86181803
I-1
sF37423022
I-1
sF13600692
I1
sF251551
I0
sF95782847
I-1
sF25987020
I1
sF32868316
I0
sF45254621
I1
sF71796702
I1
sF18847397
I1
sF48269282
I0
sF47679459
I0
sF55412713
I1
sF651472
I1
sF8292351
I1
sF63375362
I1
sF17405611
I0
sF30443524
I0
sF32966680
I1
sF61835295
I1
sF41617440
I1
sF62720035
I-1
sF75234579
I1
sF91313842
I0
sF50956334
I-1
sF2558005
I1
sF26675257
I1
sF33392704
I1
sF82511937
I1
sF19073091
I1
sF24774729
I1
sF3999819
I1
sF80939087
I0
sF54429788
I1
sF21694557
I1
sF23595108
I-1
sF85231719
I1
sF60590190
I1
sF22945446
I1
sF19240638
I-1
sF65472643
I0
sF91261066
I-1
sF72854551
I0
sF42567823
I1
sF69304686
I1
sF61311132
I1
sF87165090
I1
sF75663529
I-1
sF57411756
I-1
sF34146477
I1
sF68618416
I1
sF12028082
I1
sF34015412
I0
sF47319221
I1
sF83822789
I-1
sF69961926
I1
sF26675400
I0
sF72386761
I1
sF16351607
I1
sF89458895
I1
sF3410129
I-1
sF52463838
I0
sF58231008
I1
sF66339197
I1
sF62163192
I-1
sF59541756
I1
sF83509633
I1
sF8738519
I-1
sF5933329
I1
sF60066067
I1
sF71895318
I1
sF42174753
I1
sF11077922
I1
sF73337146
I1
sF14059835
I-1
sF3148092
I1
sF99748163
I1
sF18188616
I1
sF66881866
I1
sF70125900
I1
sF28772686
I1
sF50465103
I0
sF38701393
I1
sF40044892
I0
sF5998944
I0
sF78481773
I1
sF31230319
I1
sF41159027
I-1
sF79464827
I1
sF62327169
I-1
sF71862664
I-1
sF53315984
I0
sF29886870
I1
sF40470938
I1
sF28707229
I1
sF55249310
I1
sF46008742
I1
sF12419484
I1
sF73828784
I-1
sF66357681
I1
sF5999026
I0
sF34015667
I1
sF22251960
I1
sF2623937
I-1
sF6687176
I1
sF15239633
I1
sF26356814
I1
sF18437881
I1
sF90933726
I1
sF18254308
I1
sF45353446
I1
sF45353447
I0
sF68323816
I1
sF50989545
I1
sF56625643
I-1
sF4655603
I-1
sF99027447
I1
sF62294523
I1
sF87984639
I1
sF43754401
I1
sF22972931
I1
sF23104010
I1
sF87460363
I1
sF83298831
I0
sF62622226
I1
sF38799894
I1
sF62687772
I0
sF95291936
I1
sF97716773
I-1
sF99158569
I0
sF74943027
I0
sF44403256
I1
sF83233356
I-1
sF65309267
I-1
sF89754198
I1
sF59476569
I1
sF98634338
I1
sF54725229
I1
sF88148596
I-1
sF83291241
I1
sF35129977
I1
sF13437562
I0
sF97913471
I0
sF25135746
I1
sF28838531
I1
sF32443023
I-1
sF10947221
I1
sF69012124
I0
sF95521438
I-1
sF20155046
I1
sF27429550
I1
sF93096629
I1
sF40307383
I1
sF49679034
I-1
sF8424126
I-1
sF87558848
I1
sF96635585
I-1
sF81931383
I1
sF51743436
I1
sF74225442
I0
sF66350200
I-1
sF8194783
I1
sF93817582
I0
sF56068847
I-1
sF93457136
I1
sF82610937
I0
sF75434756
I0
sF6327045
I-1
sF59804422
I1
sF95390477
I1
sF83659550
I1
sF38341408
I1
sF6359842
I1
sF6818595
I-1
sF32672571
I1
sF21891900
I1
sF28642116
I1
sF75631430
I1
sF58657609
I1
sF12815178
I1
sF90707767
I-1
sF40864596
I-1
sF93129574
I1
sF95456109
I-1
sF31099758
I1
sF42850109
I-1
sF76483442
I0
sF4688757
I0
sF24611703
I1
sF9046907
I1
sF24710012
I-1
sF47123325
I1
sF40004757
I0
sF85986179
I0
sF55610249
I-1
sF78908310
I1
sF58821530
I1
sF22375578
I1
sF39357342
I1
sF37129126
I1
sF78121909
I1
sF79268796
I-1
sF75271104
I0
sF41290692
I0
sF85003205
I1
sF73960393
I1
sF9046986
I1
sF30575570
I1
sF52005849
I1
sF78908379
I1
sF69766108
I0
sF25496548
I1
sF89459685
I0
sF68094955
I1
sF35949549
I1
sF59935727
I-1
sF15895541
I1
sF13962237
I1
sF57478143
I1
sF53152768
I1
sF48598020
I-1
sF29821976
I1
sF35589145
I0
sF32771110
I0
sF75336744
I0
sF11963439
I1
sF32148533
I0
sF36089013
I0
sF85137249
I1
sF25726033
I1
sF73305176
I1
sF97750106
I1
sF61639771
I1
sF17763422
I1
sF64588895
I1
sF54037601
I-1
sF70257768
I1
sF22809710
I1
sF10521712
I-1
sF53972081
I0
sF62819448
I-1
sF57511036
I-1
sF23563392
I1
sF60099714
I-1
sF14093443
I1
sF95980680
I1
sF28511377
I0
sF21949635
I1
sF99126421
I1
sF98929817
I0
sF88476839
I1
sF34081965
I1
sF56691888
I1
sF67079346
I1
sF51973312
I1
sF4558022
I1
sF429256
I1
sF87362767
I0
sF54299856
I0
sF31558865
I0
sF6065362
I-1
sF23923926
I1
sF93457635
I0
sF3247333
I-1
sF86183150
I-1
sF68979963
I1
sF10153173
I1
sF18418948
I1
sF93523206
I0
sF34868489
I0
sF5770506
I-1
sF33164555
I1
sF99683600
I0
sF30674194
I1
sF1772819
I1
sF63343895
I1
sF52399388
I0
sF51121451
I1
sF88149292
I1
sF49220910
I1
sF29330735
I1
sF35032375
I-1
sF69012800
I0
sF8228164
I0
sF26643782
I0
sF93261137
I0
sF22842717
I1
sF28413288
I1
sF70421865
I1
sF98766197
I-1
sF36015483
I1
sF49220990
I0
sF96112012
I-1
sF77696404
I0
sF42274198
I1
sF76049648
I1
sF20221350
I1
sF3050923
I1
sF792477
I1
sF13962673
I-1
sF81104308
I1
sF72912315
I1
sF51776956
I1
sF18459893
I1
sF28708292
I1
sF90181062
I1
sF76647879
I0
sF81333704
I1
sF18910671
I0
sF33721816
I1
sF65474011
I0
sF87428572
I1
sF27037150
I0
sF84577777
I0
sF25464308
I1
sF10620411
I1
sF88870396
I0
sF74780160
I1
sF45649409
I-1
sF97062402
I0
sF62688771
I1
sF74092037
I1
sF10817033
I1
sF23704234
I1
sF37948947
I0
sF7245333
I1
sF71929368
I0
sF41881121
I1
sF71274019
I1
sF7212596
I1
sF48172611
I-1
sF73010762
I1
sF37817936
I1
sF26414674
I1
sF25366100
I1
sF75435613
I-1
sF13888784
I1
sF12226146
I1
sF77270632
I1
sF59805294
I1
sF91917937
I1
sF44863096
I1
sF74689812
I0
sF3280514
I1
sF72126087
I1
sF49876616
I-1
sF14749321
I1
sF58986126
I-1
sF41599597
I1
sF20933913
I1
sF99618458
I0
sF73109148
I1
sF93916829
I1
sF45679217
I1
sF51154600
I-1
sF84283053
I0
sF55479982
I1
sF98537139
I0
sF4820662
I-1
sF79859388
I1
sF91918015
I1
sF24579777
I-1
sF3903175
I1
sF90509003
I1
sF54267599
I1
sF21630673
I1
sF68999118
I-1
sF67112662
I1
sF48860887
I1
sF12127962
I0
sF22108111
I1
sF99618527
I1
sF48172772
I0
sF90443495
I1
sF46361895
I1
sF80121598
I1
sF78450431
I1
sF68292354
I1
sF94867204
I1
sF19683286
I0
sF34410249
I1
sF8318254
I1
sF62328599
I1
sF24022812
I-1
sF39620384
I0
sF40374049
I1
sF9703206
I-1
sF83431209
I1
sF69504816
I0
sF31199030
I1
sF24022844
I1
sF63606596
I1
sF85954378
I0
sF3379025
I-1
sF8687443
I-1
sF12390230
I1
sF44896088
I1
sF87527261
I-1
sF83285990
I1
sF27955048
I0
sF93982570
I1
sF85528427
I1
sF17633132
I1
sF54398830
I1
sF69799791
I1
sF9768816
I0
sF93851514
I1
sF54398847
I0
sF12390274
I1
sF17239939
I0
sF16224141
I0
sF3706769
I1
sF20975517
I-1
sF5410722
I-1
sF61173063
I1
sF69832620
I1
sF19795891
I1
sF54431671
I1
sF48730040
I1
sF24645564
I1
sF31625154
I1
sF593871
I0
sF21794784
I1
sF51187688
I1
sF94572538
I0
sF98340859
I1
sF823294
I1
sF74387458
I1
sF88084483
I1
sF43520020
I0
sF44404772
I0
sF38309931
I-1
sF78352437
I1
sF67997750
I0
sF65245239
I-1
sF12095545
I-1
sF3412033
I1
sF41750597
I1
sF22810697
I0
sF96931921
I1
sF69734492
I-1
sF94081119
I1
sF1183840
I-1
sF8458345
I1
sF87134314
I-1
sF75239537
I0
sF92278907
I1
sF34705538
I0
sF37621892
I0
sF84678678
I-1
sF84873351
I1
sF60231816
I1
sF42504329
I-1
sF5509260
I1
sF55447709
I0
sF10621098
I0
sF54005931
I1
sF16814256
I0
sF67080371
I1
sF61149366
I-1
sF45322424
I0
sF15002996
I1
sF84083717
I1
sF52695232
I-1
sF53383362
I-1
sF38342857
I0
sF57151690
I1
sF97620171
I1
sF89329881
I0
sF85004506
I1
sF64032988
I0
sF76976357
I0
sF95785190
I0
sF49811688
I0
sF41816297
I1
sF33820906
I0
sF46141677
I1
sF73666802
I0
sF81989875
I0
sF54104310
I1
sF46960892
I1
sF86413567
I1
sF34640137
I0
sF9539860
I0
sF76666927
I1
sF82448668
I1
sF75272477
I1
sF86792240
I1
sF93491492
I1
sF42823728
I1
sF58265898
I1
sF13308205
I0
sF7901494
I-1
sF74158392
I1
sF50696511
I0
sF69439808
I0
sF70652231
I1
sF9252236
I1
sF22453422
I0
sF39162200
I0
sF65376601
I0
sF90214749
I0
sF24777059
I1
sF12063076
I1
sF27788006
I1
sF24940907
I1
sF25465199
I1
sF51417456
I1
sF75239804
I1
sF44896642
I0
sF74977673
I1
sF42996108
I1
sF51417485
I1
sF11833744
I1
sF13341082
I1
sF42013094
I-1
sF27431336
I1
sF43028906
I-1
sF66458029
I-1
sF72061358
I0
sF790959
I1
sF98883656
I1
sF98210226
I1
sF33886650
I1
sF44765635
I1
sF97587654
I1
sF61018577
I0
sF34083283
I-1
sF62788052
I1
sF5575126
I1
sF58626522
I-1
sF62034399
I1
sF35426801
I1
sF18682360
I-1
sF29790714
I-1
sF11538941
I1
sF40898982
I1
sF68784649
I0
sF47550987
I0
sF41095694
I1
sF36803103
I1
sF9277987
I1
sF72454693
I1
sF53154342
I0
sF39424556
I1
sF89166382
I1
sF35230266
I1
sF31035967
I1
sF55841344
I0
sF47583812
I0
sF79139398
I1
sF94671432
I1
sF28906057
I1
sF46438498
I1
sF38900303
I0
sF85365328
I1
sF32477777
I1
sF53318228
I1
sF63574618
I1
sF22155868
I0
sF627297
I1
sF21598828
I0
sF2036334
I1
sF83366513
I1
sF70455925
I0
sF40866423
I1
sF6591096
I1
sF31527547
I0
sF93459069
I1
sF23499393
I0
sF33526404
I1
sF74158732
I-1
sF44536463
I0
sF52761241
I0
sF26940064
I0
sF99848877
I1
sF81367727
I0
sF21500603
I-1
sF70947516
I0
sF98505422
I0
sF64721618
I1
sF16356051
I1
sF79991509
I1
sF9409239
I1
sF53121756
I0
sF13079261
I1
sF75305698
I1
sF49844965
I-1
sF54760173
I1
sF83956463
I-1
sF50565877
I1
sF54807625
I0
sF37950199
I1
sF15602430
I1
sF33788672
I1
sF35427073
I-1
sF463621
I1
sF17711916
I-1
sF71866498
I0
sF78025487
I1
sF82842394
I0
sF96211740
I1
sF18847877
I-1
sF97725915
I1
sF63148843
I1
sF85824304
I-1
sF99586868
I1
sF31527737
I1
sF63607613
I0
sF86983477
I1
sF62690119
I0
sF61412169
I0
sF23794508
I1
sF90772304
I1
sF27628370
I1
sF26612566
I1
sF56562520
I1
sF27693915
I-1
sF30970718
I1
sF33002338
I1
sF18673127
I0
sF26841973
I-1
sF10589046
I1
sF76288888
I0
sF55579516
I1
sF7312256
I1
sF56071045
I0
sF43193226
I-1
sF89396107
I1
sF26645388
I-1
sF92509070
I1
sF93361041
I1
sF95163282
I1
sF84677527
I0
sF219290
I1
sF31560608
I-1
sF37786533
I1
sF48108472
I1
sF52138939
I0
sF29463485
I1
sF71930821
I1
sF35460045
I1
sF84382671
I1
sF28382160
I1
sF98014162
I1
sF19207130
I-1
sF2888668
I1
sF87757795
I0
sF26711020
I1
sF64590838
I1
sF58692605
I0
sF17142792
I1
sF37753865
I1
sF22221840
I0
sF40408098
I1
sF57961990
I-1
sF30807080
I-1
sF76944438
I-1
sF65377338
I-1
sF17798204
I1
sF57447485
I0
sF52401214
I0
sF74093634
I-1
sF42865732
I-1
sF84644933
I-1
sF51745868
I1
sF1315942
I1
sF51582058
I1
sF15144048
I1
sF25793653
I0
sF35591288
I1
sF89101433
I1
sF98997379
I-1
sF2725004
I-1
sF50238607
I0
sF14750868
I1
sF75502743
I1
sF49648800
I1
sF22516899
I1
sF97227949
I1
sF17601720
I0
sF3179380
I-1
sF20190423
I0
sF36148449
I-1
sF74519778
I0
sF60485158
I0
sF62559470
I0
sF45585648
I-1
sF27956475
I1
sF18158846
I1
sF83334401
I1
sF34673923
I1
sF21075206
I0
sF74388744
I1
sF54236426
I1
sF11834638
I0
sF77245998
I0
sF88577303
I1
sF32183578
I1
sF41649029
I-1
sF76682530
I1
sF16389418
I1
sF59177620
I-1
sF29332792
I1
sF31397177
I1
sF28547295
I1
sF65148222
I1
sF18853429
I-1
sF96867664
I1
sF86218065
I1
sF42177877
I1
sF36541786
I1
sF3511651
I0
sF22779237
I1
sF19469685
I-1
sF63706486
I0
sF20813177
I1
sF24057210
I-1
sF28874108
I-1
sF65908288
I1
sF71669123
I0
sF83526550
I1
sF24548744
I-1
sF56497546
I1
sF73700748
I1
sF34837901
I1
sF69670286
I1
sF59556761
I1
sF87972546
I1
sF16029086
I1
sF68621735
I1
sF13833642
I1
sF80123310
I-1
sF96928670
I1
sF11408837
I1
sF83858886
I0
sF82286027
I1
sF91198931
I-1
sF26187221
I1
sF32249312
I1
sF37361121
I1
sF36378082
I0
sF7214570
I1
sF88675820
I1
sF17831408
I0
sF5674488
I1
sF5281285
I-1
sF63903252
I0
sF28896857
I1
sF23484676
I-1
sF36345384
I1
sF46372393
I1
sF84350511
I1
sF39818828
I0
sF61576782
I1
sF54957647
I1
sF14816859
I0
sF75776955
I1
sF61838951
I1
sF66197097
I-1
sF77191442
I0
sF51451504
I-1
sF88774257
I0
sF44602995
I-1
sF36935287
I-1
sF58463865
I0
sF22419072
I-1
sF92378759
I1
sF92116628
I0
sF77436567
I1
sF76715673
I1
sF8951451
I1
sF42079904
I0
sF62068386
I0
sF86546085
I1
sF45330033
I-1
sF53581483
I1
sF20846256
I1
sF10294965
I-1
sF94410422
I1
sF87660219
I-1
sF72619710
I1
sF81106624
I1
sF890569
I1
sF18749140
I1
sF31954648
I1
sF89659108
I1
sF70653676
I1
sF51713776
I0
sF50566899
I1
sF77829878
I-1
sF49616650
I1
sF26384141
I1
sF59119388
I0
sF82515743
I1
sF38672162
I-1
sF96376615
I1
sF37361449
I1
sF34740022
I1
sF87118205
I1
sF88020795
I0
sF8886078
I0
sF80484162
I1
sF38803273
I1
sF84645708
I0
sF39327567
I0
sF20355385
I0
sF15013720
I-1
sF28120926
I0
sF15046495
I1
sF80320353
I-1
sF92510055
I1
sF74684264
I1
sF268141
I1
sF80254830
I-1
sF67311478
I1
sF45946751
I0
sF73144198
I1
sF15931273
I1
sF55875467
I1
sF88020877
I1
sF73340818
I1
sF67901333
I1
sF16553885
I1
sF79304615
I-1
sF30644142
I-1
sF36673456
I-1
sF25565106
I1
sF91985843
I1
sF91166645
I1
sF22910910
I1
sF78452674
I0
sF27957188
I1
sF65968069
I-1
sF27006924
I0
sF44799950
I1
sF27793364
I1
sF38541280
I1
sF39000044
I1
sF83007471
I1
sF33724408
I0
sF80779261
I-1
sF57907205
I0
sF1579014
I1
sF58660880
I0
sF30382102
I1
sF21693445
I1
sF11704356
I1
sF67115048
I1
sF14030890
I1
sF58562612
I1
sF27039802
I0
sF48994368
I1
sF15964228
I1
sF59349072
I1
sF40966501
I0
sF8788066
I1
sF73144419
I-1
sF69965926
I1
sF50436201
I-1
sF23795828
I0
sF45783157
I1
sF71014522
I1
sF21895294
I1
sF48371841
I1
sF84875394
I1
sF42047620
I1
sF58693765
I1
sF73373830
I1
sF83171465
I1
sF46536843
I0
sF12654735
I-1
sF71964821
I1
sF15374487
I1
sF87070880
I1
sF87955622
I1
sF42965160
I1
sF83734216
I0
sF44079290
I1
sF71112893
I0
sF4266178
I1
sF55711947
I-1
sF42768592
I1
sF46471385
I0
sF27990236
I-1
sF58661087
I0
sF72423658
I1
sF8067310
I1
sF46143727
I1
sF49289465
I1
sF40016127
I-1
sF64690432
I1
sF66722052
I-1
sF69933320
I0
sF35690768
I1
sF87759123
I1
sF63609110
I1
sF93198619
I1
sF536282
I1
sF9509150
I1
sF86055200
I1
sF36378916
I0
sF7117097
I0
sF24151091
I-1
sF49420598
I0
sF64198969
I1
sF34085181
I-1
sF54794578
I1
sF16095572
I1
sF53025113
I-1
sF56301915
I0
sF59906405
I-1
sF10459502
I1
sF82221424
I1
sF67246449
I1
sF3348850
I1
sF15833491
I1
sF91713258
I1
sF41556350
I0
sF92182911
I1
sF95361412
I0
sF26155400
I0
sF96606605
I1
sF88611215
I1
sF3709331
I1
sF45685142
I1
sF79370650
I-1
sF4266402
I1
sF26548644
I1
sF10623399
I0
sF15440302
I1
sF29759919
I1
sF23992758
I1
sF38525343
I1
sF47684032
I1
sF92084677
I1
sF3905993
I1
sF12261837
I1
sF93952466
I1
sF81697235
I0
sF7641561
I1
sF54073818
I1
sF49912285
I1
sF7641567
I1
sF31786064
I1
sF50502122
I1
sF15309292
I-1
sF9017846
I1
sF6647551
I1
sF22671104
I-1
sF3578380
I0
sF1808914
I0
sF8362516
I0
sF7281173
I1
sF74717722
I-1
sF98933287
I0
sF13081146
I-1
sF82221630
I1
sF41327171
I1
sF54172229
I1
sF68590160
I-1
sF85138004
I1
sF93493845
I-1
sF71834198
I1
sF63281757
I0
sF42030555
I1
sF4201055
I-1
sF35862397
I0
sF52435562
I1
sF57612924
I1
sF77672214
I-1
sF51485324
I-1
sF15702669
I0
sF77077136
I1
sF5151379
I1
sF77634198
I1
sF24582813
I1
sF60398238
I1
sF8395428
I0
sF36258929
I1
sF67033543
I0
sF61610671
I0
sF73702068
I1
sF31955640
I-1
sF61381309
I1
sF6724294
I0
sF59546313
I-1
sF28646095
I1
sF58825431
I1
sF20257498
I0
sF97862778
I1
sF42932958
I1
sF50928356
I-1
sF47618790
I1
sF50589479
I0
sF21732077
I1
sF50873469
I0
sF76716789
I1
sF92314358
I1
sF19962617
I1
sF68492026
I-1
sF10754812
I1
sF64181592
I1
sF41327369
I1
sF75307788
I-1
sF41130766
I-1
sF62298897
I1
sF45652759
I1
sF78606127
I-1
sF90741210
I-1
sF51872901
I1
sF11574058
I-1
sF28777261
I1
sF4922171
I-1
sF73991306
I1
sF50076478
I-1
sF46635844
I1
sF89594701
I1
sF44440399
I0
sF35527504
I1
sF14523219
I1
sF19897172
I0
sF99785560
I0
sF90250077
I-1
sF51813221
I1
sF93471889
I0
sF73964400
I1
sF53189489
I1
sF42638196
I1
sF50993642
I1
sF3185538
I1
sF90381188
I1
sF40016773
I1
sF20454278
I1
sF14719879
I1
sF85990287
I0
sF71998352
I-1
sF70720402
I1
sF19962775
I1
sF11475873
I1
sF68918184
I1
sF50568110
I0
sF28285871
I1
sF53255088
I1
sF43162545
I1
sF88710066
I0
sF48896956
I1
sF51911615
I0
sF35199941
I1
sF18488262
I1
sF68721608
I1
sF8592329
I1
sF27466703
I0
sF95951826
I0
sF66460634
I1
sF2563036
I1
sF64068590
I-1
sF31464432
I1
sF55155705
I1
sF5479429
I1
sF92642311
I1
sF8985608
I-1
sF95410690
I1
sF35232782
I1
sF77241367
I1
sF60922904
I0
sF53336580
I1
sF58989602
I1
sF57941028
I1
sF72817712
I1
sF54271033
I1
sF65772605
I1
sF53058624
I-1
sF18226241
I1
sF79797316
I1
sF9083977
I1
sF40213579
I1
sF7871568
I-1
sF15899733
I0
sF79043672
I-1
sF27499613
I1
sF36641886
I1
sF84057183
I1
sF34217061
I1
sF73112678
I1
sF94215272
I1
sF37820948
I-1
sF77667456
I1
sF40377481
I-1
sF32218254
I1
sF92773522
I1
sF68590750
I1
sF68000930
I1
sF1055911
I0
sF83172520
I-1
sF87268526
I1
sF89267381
I1
sF44801208
I0
sF86187204
I1
sF55024837
I1
sF75832541
I1
sF97721579
I1
sF4201716
I-1
sF12623102
I0
sF94117123
I1
sF86744324
I0
sF66395401
I1
sF42900746
I-1
sF38575371
I-1
sF77045005
I1
sF34970900
I1
sF47586586
I1
sF66428187
I1
sF82418977
I-1
sF40289499
I0
sF17734965
I1
sF31792439
I1
sF42343751
I1
sF54173002
I1
sF38182227
I1
sF60071252
I1
sF44146009
I-1
sF57023836
I1
sF14130529
I1
sF76029282
I-1
sF23224954
I-1
sF51846504
I1
sF67902826
I0
sF84942189
I1
sF74784115
I1
sF90577470
I1
sF11410812
I0
sF85892493
I1
sF65478031
I1
sF62430617
I1
sF18390431
I-1
sF31825313
I-1
sF45030820
I1
sF13573588
I1
sF77176280
I0
sF83631587
I1
sF39525862
I1
sF96345579
I0
sF69115372
I1
sF73571825
I1
sF93396469
I-1
sF98967032
I1
sF53976571
I0
sF76815870
I1
sF51748354
I0
sF42671630
I1
sF597522
I1
sF40181271
I1
sF82451995
I0
sF37658140
I1
sF57122340
I1
sF23043623
I1
sF47652394
I1
sF67317682
I1
sF57384500
I1
sF10755640
I-1
sF62332473
I1
sF20389435
I1
sF35823165
I1
sF94477886
I1
sF83500608
I0
sF36970051
I1
sF69738054
I-1
sF7020103
I0
sF39624267
I1
sF10755660
I1
sF74456667
I1
sF80125532
I1
sF29990493
I1
sF95002207
I1
sF20546832
I1
sF55451251
I0
sF11644862
I1
sF82353782
I1
sF99884675
I0
sF33365637
I1
sF36970122
I1
sF99163793
I1
sF41918098
I1
sF37072835
I-1
sF68787868
I1
sF1351329
I0
sF39296678
I-1
sF35987111
I-1
sF42737320
I-1
sF89333419
I1
sF38117039
I-1
sF78524362
I1
sF22486721
I1
sF83992258
I0
sF20258500
I1
sF56029132
I1
sF47816397
I1
sF4071121
I1
sF90775253
I0
sF70196956
I0
sF84352734
I1
sF33693408
I0
sF17178339
I1
sF64888554
I1
sF25730798
I1
sF52567796
I0
sF45620984
I0
sF70496212
I0
sF13442811
I1
sF79339260
I1
sF63676157
I-1
sF302847
I1
sF35921664
I-1
sF22585090
I1
sF171783
I1
sF71802632
I1
sF15769362
I1
sF38674202
I1
sF78683933
I1
sF79501957
I1
sF29695785
I1
sF21438253
I1
sF23764786
I0
sF84352821
I1
sF56500024
I0
sF95814965
I1
sF36314946
I0
sF59842373
I-1
sF77078348
I-1
sF32186190
I-1
sF47488851
I-1
sF88055639
I1
sF36773720
I1
sF94216025
I1
sF27107167
I1
sF60530530
I1
sF27926374
I-1
sF69944636
I1
sF2236275
I1
sF32579448
I1
sF82714492
I1
sF57974656
I1
sF58171265
I0
sF87433091
I1
sF21077897
I1
sF25370506
I-1
sF2334603
I1
sF8429459
I0
sF35856280
I1
sF72720289
I-1
sF50143141
I1
sF57417639
I1
sF39657385
I1
sF75979421
I-1
sF24354744
I0
sF52834292
I1
sF56434619
I0
sF87826387
I0
sF24354775
I1
sF7510692
I0
sF81895389
I1
sF38182879
I1
sF29466592
I1
sF82314576
I1
sF63938532
I0
sF87859176
I1
sF95559657
I1
sF1155050
I1
sF57417707
I0
sF27828208
I0
sF26484730
I0
sF10297344
I0
sF37101576
I0
sF43786255
I1
sF88580113
I0
sF44081175
I0
sF20717595
I1
sF17702942
I1
sF925731
I1
sF84353063
I-1
sF36905010
I0
sF60530741
I1
sF31957050
I0
sF68821052
I1
sF49619008
I1
sF89169986
I0
sF98443346
I1
sF15671384
I1
sF40902746
I1
sF73445332
I1
sF53223521
I1
sF53762747
I1
sF54141038
I1
sF78585968
I0
sF3448958
I1
sF36348034
I0
sF97606338
I1
sF18423952
I1
sF24420497
I1
sF16392339
I1
sF49651867
I1
sF50110623
I0
sF16359589
I1
sF7479468
I1
sF7086253
I1
sF38969520
I0
sF7643328
I-1
sF65052866
I1
sF87400647
I1
sF76390611
I-1
sF49717463
I0
sF22159578
I0
sF78455005
I1
sF36610273
I1
sF83435746
I1
sF5677293
I1
sF34080126
I1
sF79470841
I-1
sF20619519
I0
sF43557126
I1
sF57450759
I1
sF30810378
I-1
sF79458349
I-1
sF20390164
I1
sF31760671
I1
sF5710113
I-1
sF34742563
I0
sF86679848
I1
sF12001580
I1
sF54173999
I1
sF31498544
I-1
sF60465459
I-1
sF88711486
I-1
sF51585344
I1
sF48603463
I1
sF81273161
I1
sF42312013
I-1
sF51781969
I1
sF27533653
I0
sF49553753
I1
sF23339358
I1
sF50438500
I0
sF90513765
I0
sF24944999
I1
sF75637099
I1
sF17244524
I1
sF83665265
I1
sF44802421
I1
sF77799810
I-1
sF92742019
I1
sF27926917
I1
sF16687497
I0
sF33923467
I1
sF91495149
I-1
sF33595797
I1
sF84189590
I1
sF17637790
I1
sF56369568
I-1
sF10985894
I1
sF57221554
I0
sF92545460
I-1
sF29542634
I1
sF78815674
I1
sF8692155
I0
sF61435979
I-1
sF41886150
I-1
sF10920404
I0
sF57254357
I1
sF85729754
I0
sF68919777
I0
sF78127604
I1
sF8593910
I1
sF36119032
I-1
sF22061578
I1
sF23044620
I0
sF14426637
I1
sF28815450
I1
sF45720097
I1
sF90087974
I1
sF87826991
I0
sF34480689
I-1
sF77439541
I-1
sF89104951
I1
sF5677632
I-1
sF99463265
I1
sF17736265
I1
sF31334990
I1
sF52535894
I1
sF6922849
I0
sF38871669
I1
sF43262591
I1
sF73904236
I1
sF83141258
I-1
sF64430731
I0
sF32088721
I1
sF81994408
I1
sF48276141
I1
sF22520494
I0
sF17674355
I1
sF59482804
I1
sF17900213
I1
sF36119225
I1
sF26550981
I-1
sF4432584
I1
sF11608779
I1
sF29467343
I1
sF91923152
I0
sF18227922
I-1
sF58663636
I-1
sF58598107
I1
sF13148894
I0
sF45818591
I1
sF76587745
I1
sF7054055
I1
sF36872937
I0
sF78291693
I1
sF29434606
I-1
sF90448625
I1
sF19636979
I1
sF39527160
I0
sF28386041
I0
sF88908540
I1
sF95396606
I-1
sF66331398
I1
sF99754761
I-1
sF27630381
I1
sF34874133
I1
sF95003422
I1
sF2532129
I-1
sF20259619
I1
sF41460517
I-1
sF52798247
I1
sF36447017
I-1
sF88253230
I0
sF5677872
I1
sF69215026
I1
sF19112756
I1
sF24322874
I0
sF75506500
I1
sF4825926
I1
sF67216203
I-1
sF81994575
I1
sF29041490
I1
sF49554262
I1
sF28418906
I0
sF14984033
I1
sF63841130
I1
sF36152174
I1
sF5219187
I1
sF84190074
I1
sF28353407
I1
sF402307
I0
sF31859599
I1
sF25011089
I0
sF53257113
I1
sF94380957
I1
sF28976030
I1
sF39265184
I1
sF7964144
I1
sF9826459
I1
sF10068907
I-1
sF67814898
I1
sF94118831
I1
sF7250865
I0
sF3076254
I0
sF74032069
I-1
sF7971785
I1
sF55518158
I1
sF271315
I1
sF84583380
I1
sF23339989
I1
sF69797369
I1
sF38970336
I-1
sF6824938
I1
sF53519341
I1
sF13935599
I1
sF66298865
I-1
sF89793522
I-1
sF78895956
I0
sF86516734
I0
sF2073603
I1
sF11346951
I1
sF82093066
I-1
sF9741324
I1
sF99787789
I0
sF62071835
I1
sF60630046
I1
sF3712033
I0
sF71967778
I1
sF91759651
I0
sF89105444
I1
sF10396710
I1
sF64037927
I0
sF468013
I1
sF52732982
I1
sF79078460
I0
sF47785023
I1
sF66528321
I1
sF75605059
I1
sF82846789
I1
sF44082248
I1
sF40084556
I-1
sF78324829
I1
sF48833632
I1
sF10298477
I0
sF46539887
I-1
sF50406512
I0
sF60040305
I1
sF3220596
I1
sF57091189
I1
sF67675254
I1
sF71476345
I-1
sF65807487
I-1
sF79242377
I1
sF32416914
I1
sF27698325
I0
sF54240412
I1
sF59778205
I-1
sF12035236
I1
sF84157606
I1
sF37925063
I1
sF27960495
I1
sF64988336
I1
sF40903869
I1
sF25011390
I-1
sF70198467
I1
sF40153292
I1
sF69346509
I1
sF28091598
I-1
sF50930896
I1
sF5842143
I1
sF9220304
I1
sF73966828
I0
sF37790957
I-1
sF70886642
I1
sF92087542
I0
sF88810743
I1
sF38514900
I-1
sF46638330
I1
sF52339963
I0
sF58500350
I-1
sF77702406
I1
sF9282823
I-1
sF75572491
I1
sF26354960
I0
sF85271826
I1
sF20915475
I0
sF11150615
I0
sF44713519
I0
sF21636380
I1
sF72358789
I1
sF71050529
I1
sF49718565
I0
sF56304945
I1
sF92284214
I1
sF40281401
I0
sF48735551
I0
sF96740672
I1
sF57419075
I1
sF15934794
I0
sF75572555
I-1
sF38479186
I-1
sF63546712
I0
sF48902372
I1
sF85042523
I1
sF75900252
I1
sF31171935
I1
sF50996576
I1
sF29893993
I1
sF1844588
I-1
sF46277999
I1
sF77243764
I1
sF51258746
I1
sF34579843
I-1
sF77833608
I1
sF74458510
I1
sF26977682
I1
sF29861270
I1
sF80487831
I1
sF58467736
I1
sF1254810
I1
sF33105307
I0
sF16393628
I0
sF64202142
I1
sF33170868
I0
sF77505980
I0
sF43768736
I1
sF23176650
I-1
sF58533329
I-1
sF73016786
I0
sF29402585
I0
sF87598562
I1
sF29023142
I0
sF60761575
I1
sF71771630
I1
sF9040125
I-1
sF47586216
I-1
sF83928568
I1
sF78161401
I1
sF17802746
I0
sF68298236
I1
sF14722565
I1
sF12027480
I1
sF32613906
I1
sF59352595
I1
sF89794069
I-1
sF47457814
I1
sF30809007
I1
sF85930245
I-1
sF77571616
I1
sF73183510
I0
sF68789799
I0
sF16131625
I0
sF97592891
I1
sF45360700
I1
sF79144509
I1
sF15509059
I1
sF40150603
I1
sF7087692
I0
sF35989078
I1
sF64562783
I1
sF58041953
I0
sF36972131
I0
sF25405028
I1
sF22750824
I-1
sF53585513
I1
sF61875818
I1
sF68658797
I0
sF84125294
I1
sF84944506
I0
sF5812502
I1
sF15771279
I0
sF80717456
I0
sF84944540
I0
sF90282950
I1
sF92532524
I1
sF10659501
I0
sF53618355
I1
sF94742204
I1
sF86320829
I0
sF65971904
I1
sF36054721
I0
sF65185475
I1
sF9807557
I1
sF17966799
I1
sF92841681
I1
sF20522710
I1
sF21472995
I1
sF63514340
I1
sF37725927
I0
sF53028584
I1
sF59746029
I1
sF83502836
I-1
sF61515514
I1
sF2762496
I0
sF37136132
I1
sF95640534
I-1
sF84518666
I1
sF48703250
I1
sF64235286
I0
sF62269216
I1
sF33072936
I-1
sF59975471
I1
sF11577140
I1
sF75278134
I1
sF30287677
I0
sF48736062
I1
sF6648117
I1
sF13248328
I1
sF27862871
I1
sF16099161
I1
sF2664285
I1
sF45131618
I-1
sF82749286
I0
sF91367275
I1
sF6072175
I1
sF60827509
I1
sF86615927
I1
sF35497850
I-1
sF64759695
I1
sF98609051
I1
sF26978224
I0
sF98052021
I0
sF74491831
I-1
sF77113275
I1
sF99166141
I1
sF81766336
I1
sF15476679
I0
sF34613194
I1
sF98346962
I1
sF87435225
I0
sF26847204
I1
sF70068199
I-1
sF36415481
I1
sF6531069
I1
sF62859278
I-1
sF81700879
I1
sF38643732
I1
sF28780567
I1
sF64268312
I1
sF80750618
I0
sF87131825
I0
sF86059057
I0
sF86845491
I1
sF61515831
I1
sF68560953
I1
sF8562752
I-1
sF88221766
I1
sF79210569
I1
sF22489166
I-1
sF14919775
I0
sF64039009
I-1
sF46966882
I0
sF75835492
I1
sF59811947
I-1
sF25307246
I1
sF72755314
I-1
sF1615998
I1
sF98478213
I-1
sF83994759
I0
sF88480791
I1
sF62466188
I0
sF78391439
I0
sF50505885
I1
sF1058990
I-1
sF72517320
I1
sF26192057
I1
sF75835583
I-1
sF85895362
I0
sF34777286
I0
sF71313608
I1
sF9152713
I1
sF46606543
I1
sF78325983
I-1
sF29075682
I0
sF3614954
I0
sF94546158
I1
sF83372280
I-1
sF85862649
I0
sF10529021
I1
sF57755350
I1
sF56273159
I1
sF90122506
I1
sF40151308
I1
sF5318928
I1
sF39495957
I0
sF96807194
I1
sF73247006
I-1
sF50112800
I0
sF74128432
I0
sF77179175
I1
sF45754664
I0
sF60795184
I1
sF24258867
I1
sF47032631
I0
sF7547194
I1
sF47819068
I1
sF45263172
I-1
sF66884443
I1
sF98740557
I1
sF55617876
I0
sF10758487
I0
sF11118951
I0
sF32057728
I1
sF98576773
I1
sF96184714
I1
sF74656142
I-1
sF97429903
I1
sF78522774
I1
sF40688708
I0
sF25536926
I1
sF39004576
I-1
sF1812898
I-1
sF54208938
I0
sF80980395
I-1
sF64793004
I-1
sF32287157
I-1
sF51620279
I1
sF80882106
I1
sF92580288
I1
sF96410699
I1
sF89041348
I1
sF96446918
I-1
sF92088776
I1
sF94284238
I-1
sF78752208
I0
sF16394705
I1
sF23570902
I0
sF81701335
I-1
sF54438361
I1
sF25864671
I1
sF32877024
I1
sF82717153
I1
sF93497828
I1
sF99723752
I1
sF68364779
I1
sF16656877
I1
sF35170800
I1
sF37235190
I-1
sF96414200
I1
sF59058684
I1
sF96348671
I1
sF72886788
I1
sF80982446
I0
sF61712923
I1
sF90384934
I1
sF78260778
I-1
sF63154733
I1
sF18131503
I0
sF84322870
I1
sF2632248
I0
sF7612992
I-1
sF42936898
I-1
sF37497428
I1
sF80521815
I-1
sF2533991
I0
sF96021097
I1
sF41069175
I1
sF24291962
I1
sF59845245
I1
sF89107071
I0
sF61758572
I1
sF73902734
I-1
sF87534224
I1
sF19835537
I1
sF83503762
I1
sF7678618
I-1
sF87337632
I1
sF55061155
I-1
sF84126374
I0
sF54373032
I1
sF53815997
I1
sF34712254
I1
sF99101377
I-1
sF79604421
I0
sF43452193
I1
sF9022156
I1
sF39561937
I-1
sF47065810
I1
sF51653336
I0
sF62466777
I0
sF63417052
I1
sF77310691
I-1
sF32156391
I-1
sF25471721
I-1
sF30386929
I-1
sF35072761
I0
sF22923050
I1
sF73083661
I1
sF5647118
I1
sF75934485
I0
sF30845722
I0
sF96021278
I1
sF86584104
I1
sF39856943
I0
sF928560
I-1
sF34646839
I1
sF35236664
I1
sF1682236
I1
sF26422084
I1
sF59124550
I1
sF12987212
I0
sF39037775
I1
sF59091798
I0
sF2763608
I0
sF40446821
I-1
sF10398582
I-1
sF88877943
I-1
sF46934905
I1
sF94546810
I1
sF90712955
I1
sF41855868
I0
sF45296515
I1
sF21408644
I1
sF19704709
I1
sF60435342
I1
sF1485715
I-1
sF58502038
I1
sF80882585
I1
sF43035547
I1
sF99003294
I0
sF42785947
I-1
sF73313197
I1
sF46836657
I-1
sF12102582
I0
sF64793529
I1
sF39431100
I-1
sF78490570
I1
sF71838672
I1
sF48442326
I0
sF37333975
I1
sF93858777
I1
sF2894810
I1
sF73804769
I1
sF27765740
I0
sF33401846
I1
sF36336127
I1
sF49458183
I-1
sF4205586
I1
sF71703726
I1
sF98839575
I1
sF13741080
I0
sF6204460
I1
sF73870388
I1
sF55357961
I1
sF50113592
I1
sF3812413
I0
sF76688446
I1
sF77044917
I1
sF26029128
I1
sF61058121
I1
sF99888202
I1
sF61058124
I1
sF68463694
I-1
sF74918997
I1
sF91532380
I1
sF15051869
I1
sF75050079
I1
sF32418915
I1
sF57945196
I0
sF32550002
I1
sF28716148
I1
sF7063401
I1
sF88976504
I1
sF71216272
I1
sF46345363
I0
sF37596308
I1
sF52800666
I1
sF32517278
I0
sF35953861
I0
sF34811044
I1
sF21540011
I1
sF53947565
I0
sF26094769
I1
sF29895861
I1
sF17345720
I1
sF51752121
I1
sF39103676
I1
sF66301119
I1
sF4238538
I-1
sF40479949
I1
sF6380749
I1
sF61353172
I-1
sF33107163
I1
sF57945309
I1
sF40152289
I-1
sF67120355
I0
sF37563629
I1
sF68300014
I0
sF7449845
I1
sF94481661
I0
sF19625449
I1
sF68758788
I1
sF46476556
I-1
sF55848205
I0
sF99233040
I1
sF41626900
I-1
sF87043350
I1
sF25701665
I-1
sF76033321
I1
sF27766067
I1
sF19737910
I1
sF27274551
I1
sF19934526
I1
sF6171967
I1
sF11480389
I1
sF37203270
I0
sF3714376
I1
sF54472013
I1
sF82357584
I1
sF79506773
I1
sF71163108
I1
sF20917594
I1
sF66858333
I1
sF70659422
I1
sF69086573
I1
sF70036851
I0
sF55946612
I1
sF93203836
I0
sF46804352
I1
sF67039809
I1
sF43396492
I1
sF63155598
I1
sF28716432
I1
sF39857554
I0
sF69513796
I1
sF25800090
I1
sF46280096
I0
sF65908133
I0
sF2436525
I1
sF59715001
I1
sF22195642
I1
sF93236668
I0
sF93498825
I1
sF44510667
I1
sF21736908
I-1
sF29863376
I1
sF3190226
I1
sF68300244
I-1
sF19115478
I-1
sF45919706
I1
sF59878875
I1
sF10628572
I1
sF36318687
I1
sF68022864
I-1
sF98020834
I0
sF69086695
I1
sF1486320
I0
sF55062019
I1
sF13839879
I0
sF70692364
I1
sF75345422
I1
sF97529361
I1
sF95694357
I1
sF71118359
I1
sF72166938
I-1
sF58535457
I1
sF12856866
I1
sF55193134
I1
sF44052015
I1
sF94285360
I0
sF93695541
I-1
sF99233344
I1
sF2108994
I1
sF66854155
I-1
sF7777868
I1
sF45788749
I1
sF27960603
I1
sF45428314
I0
sF47459931
I0
sF40873564
I1
sF12791399
I0
sF39562857
I1
sF18951792
I1
sF35794545
I1
sF63319680
I1
sF58699394
I1
sF83701384
I1
sF33173129
I1
sF25276045
I1
sF75214481
I1
sF87895698
I0
sF40414867
I1
sF3223190
I0
sF30322327
I1
sF88813208
I-1
sF84586137
I1
sF72265371
I-1
sF91631260
I0
sF73019037
I-1
sF60632741
I1
sF25439910
I1
sF19967665
I-1
sF47820477
I1
sF98152132
I-1
sF90517192
I1
sF92473292
I1
sF3748471
I-1
sF34614995
I-1
sF44707541
I1
sF72920794
I0
sF86329295
I0
sF86781664
I0
sF82685666
I1
sF65711848
I1
sF12955369
I1
sF48587331
I1
sF75050747
I1
sF13414140
I0
sF94285570
I1
sF12251777
I0
sF18231054
I1
sF76263190
I1
sF76590881
I1
sF22358748
I-1
sF69283624
I1
sF85569326
I1
sF18394932
I-1
sF16199481
I0
sF3157818
I1
sF11181365
I-1
sF18034500
I1
sF57683786
I0
sF62435149
I1
sF89404046
I1
sF54243159
I1
sF4271964
I1
sF110430
I0
sF77102928
I1
sF93266929
I1
sF70599793
I-1
sF48803688
I1
sF45363050
I0
sF15871852
I1
sF241519
I1
sF5156722
I1
sF99135358
I-1
sF27242372
I1
sF67776390
I0
sF54374285
I1
sF14888859
I1
sF98840482
I0
sF54407077
I0
sF95301552
I1
sF89894833
I-1
sF20098994
I-1
sF89698228
I1
sF4042683
I0
sF14036926
I-1
sF45920192
I0
sF99921859
I1
sF12857287
I1
sF42020809
I1
sF21213130
I0
sF24692727
I1
sF36745171
I1
sF39333844
I-1
sF95989717
I1
sF57225175
I1
sF44129615
I0
sF86716387
I1
sF73936875
I-1
sF62599848
I1
sF43495410
I1
sF56864756
I0
sF21082106
I-1
sF75509755
I1
sF70004733
I1
sF85777751
I1
sF60076049
I1
sF89108501
I1
sF83767319
I1
sF63778844
I1
sF58175529
I1
sF15314990
I-1
sF72265790
I-1
sF56537163
I-1
sF25571406
I-1
sF64237658
I1
sF39580346
I1
sF43004001
I0
sF18460778
I1
sF27603052
I0
sF24653939
I1
sF23867516
I1
sF78557309
I-1
sF15151232
I1
sF3289232
I1
sF77924376
I1
sF70791315
I1
sF81146009
I1
sF12955807
I1
sF5910695
I-1
sF97824944
I-1
sF42381492
I0
sF77836469
I1
sF57454777
I0
sF15675586
I0
sF12234947
I1
sF438471
I0
sF50376908
I1
sF86323407
I0
sF53555408
I0
sF91566292
I-1
sF30519512
I1
sF74658012
I1
sF69120222
I-1
sF38580449
I1
sF766180
I1
sF35008760
I-1
sF93369044
I1
sF57061637
I0
sF71840006
I1
sF32936179
I1
sF9941258
I0
sF65614091
I0
sF33304844
I1
sF2765078
I1
sF16199959
I0
sF58175771
I1
sF19673377
I0
sF4272421
I-1
sF36385063
I-1
sF95269173
I1
sF54899016
I0
sF41628002
I1
sF75247976
I1
sF7254377
I1
sF47198580
I1
sF13382017
I1
sF90943878
I1
sF84947340
I1
sF89600399
I1
sF66433433
I1
sF93401499
I1
sF49951143
I1
sF47630407
I0
sF27341230
I1
sF10924465
I-1
sF65876402
I1
sF92484048
I1
sF36680151
I0
sF9220574
I1
sF99955167
I1
sF88256995
I1
sF23572967
I1
sF39334378
I1
sF98611695
I0
sF23540208
I1
sF20918777
I1
sF16036356
I1
sF21803526
I1
sF41366023
I1
sF82555401
I1
sF15315471
I-1
sF39465492
I1
sF75182617
I1
sF96973339
I1
sF94843420
I1
sF82238896
I1
sF16855588
I0
sF81408557
I1
sF84488756
I1
sF45888054
I1
sF74625597
I-1
sF89207360
I1
sF10269252
I-1
sF90976860
I1
sF28996368
I1
sF47526499
I1
sF56013414
I-1
sF92516969
I1
sF87929454
I1
sF19051126
I0
sF38744695
I1
sF32518778
I1
sF75658005
I0
sF49394310
I0
sF2639980
I1
sF48509580
I1
sF44741262
I1
sF70857361
I1
sF37958295
I1
sF73642648
I1
sF50508442
I-1
sF10400411
I-1
sF96744099
I1
sF58831528
I1
sF74461865
I1
sF52736682
I0
sF72135339
I1
sF75084468
I0
sF55095995
I0
sF34681532
I-1
sF93926087
I1
sF73413321
I1
sF7948407
I1
sF42447568
I1
sF79803092
I0
sF99431126
I-1
sF61813468
I1
sF11416296
I1
sF35795694
I1
sF43594480
I-1
sF21410551
I1
sF48607994
I-1
sF8958720
I0
sF15020806
I1
sF59945739
I1
sF55554830
I-1
sF12006159
I0
sF3945232
I1
sF22295315
I0
sF94679830
I1
sF6370071
I1
sF51557144
I-1
sF45822750
I1
sF64729890
I-1
sF27702055
I1
sF31339308
I0
sF33633076
I-1
sF89797435
I1
sF99267389
I1
sF83735359
I1
sF75674441
I1
sF28029772
I1
sF58241870
I1
sF9384783
I1
sF53818192
I1
sF31732565
I1
sF50082651
I-1
sF37991271
I0
sF62534504
I-1
sF91108205
I1
sF3978094
I0
sF16331633
I1
sF15151987
I-1
sF16561018
I1
sF51229563
I1
sF66237308
I1
sF44118911
I1
sF59880328
I0
sF61027211
I0
sF63746963
I1
sF8106916
I1
sF5616550
I0
sF71807915
I1
sF32617388
I-1
sF73970613
I1
sF75150262
I1
sF51459004
I1
sF86586305
I-1
sF81310659
I0
sF80884678
I1
sF88486864
I1
sF81474523
I1
sF39891932
I1
sF66991072
I0
sF76460880
I1
sF2372586
I1
sF35173355
I1
sF55025150
I-1
sF10728450
I1
sF28095491
I-1
sF65057796
I-1
sF5682184
I1
sF50934794
I0
sF38614029
I1
sF42578959
I0
sF75314198
I1
sF20100119
I1
sF7091226
I1
sF38155294
I0
sF70328142
I1
sF38515752
I1
sF7271260
I-1
sF45691949
I1
sF24523824
I0
sF37008444
I1
sF41552053
I0
sF93467713
I1
sF25048130
I1
sF35085835
I-1
sF71054405
I0
sF93860941
I0
sF78623830
I-1
sF96291001
I1
sF32420953
I0
sF91501658
I0
sF963680
I1
sF30717029
I0
sF78394476
I1
sF57914478
I1
sF25965688
I1
sF71185535
I1
sF86324358
I0
sF44610701
I1
sF94680207
I-1
sF45429904
I0
sF67384467
I0
sF14889838
I1
sF11929797
I0
sF29471904
I1
sF64763042
I0
sF83516955
I1
sF18265258
I1
sF78165163
I1
sF42185901
I-1
sF81933489
I0
sF95073463
I1
sF43332799
I1
sF64337097
I0
sF34550989
I1
sF71736868
I0
sF64861405
I1
sF91239649
I-1
sF8926437
I1
sF90191080
I-1
sF39419707
I-1
sF29013230
I1
sF15512817
I-1
sF97039611
I-1
sF48739582
I0
sF35927295
I1
sF71349514
I0
sF14207191
I1
sF23016717
I0
sF2596397
I1
sF82392336
I1
sF68859156
I1
sF49362200
I1
sF79607066
I1
sF47985949
I1
sF79869215
I1
sF42546466
I1
sF63517993
I1
sF56079662
I1
sF45954351
I1
sF13415729
I0
sF35894584
I1
sF74298690
I-1
sF15250764
I0
sF48613603
I1
sF10499429
I0
sF2241897
I1
sF54801770
I1
sF17282412
I1
sF15381872
I1
sF37369203
I-1
sF65756735
I0
sF47396221
I-1
sF4660800
I1
sF38942091
I-1
sF52966796
I1
sF17511824
I1
sF69580178
I1
sF20405827
I1
sF30946711
I1
sF62043546
I0
sF67351963
I1
sF97301917
I1
sF13739
I1
sF58766776
I1
sF8107471
I1
sF63092180
I1
sF96384473
I-1
sF71710171
I1
sF89634272
I1
sF58734050
I1
sF34616806
I-1
sF15480299
I1
sF99530222
I1
sF39269873
I1
sF94226686
I1
sF90387958
I-1
sF97629696
I1
sF14726664
I1
sF9549323
I1
sF58373652
I1
sF78525976
I1
sF94385690
I-1
sF38942239
I1
sF47068711
I1
sF78722603
I1
sF38778416
I0
sF7779894
I1
sF41825850
I1
sF74266176
I1
sF61486659
I1
sF19968950
I-1
sF97793608
I0
sF18527821
I1
sF8140368
I1
sF39597656
I1
sF36976218
I1
sF63321696
I0
sF56440419
I1
sF44545638
I1
sF29177456
I-1
sF177779
I1
sF65910396
I1
sF21870214
I1
sF243335
I-1
sF16463502
I1
sF95368854
I1
sF58472087
I1
sF1324697
I1
sF28849825
I1
sF35462771
I-1
sF55686836
I0
sF23639733
I1
sF99890878
I1
sF29040245
I1
sF89831115
I1
sF59913936
I1
sF68302546
I0
sF31766231
I-1
sF25409248
I1
sF47461328
I0
sF32519906
I0
sF10827497
I1
sF7714543
I1
sF29112056
I1
sF6174458
I1
sF8599293
I1
sF25212674
I1
sF12891913
I1
sF69449494
I-1
sF10860315
I0
sF77739812
I0
sF56014631
I0
sF44349230
I-1
sF42809137
I0
sF72759092
I0
sF39260008
I1
sF1226554
I1
sF87013189
I1
sF65976142
I-1
sF63059792
I1
sF36091729
I-1
sF53786450
I1
sF30259027
I1
sF70956886
I1
sF79705962
I0
sF9877360
I1
sF57522033
I-1
sF1488756
I1
sF59651959
I1
sF91928444
I1
sF22263677
I1
sF90715115
I0
sF79837061
I1
sF67684673
I1
sF69056398
I1
sF62699409
I1
sF80459671
I-1
sF8730520
I1
sF24295331
I1
sF44578726
I1
sF32978856
I1
sF87072412
I0
sF11220908
I0
sF27506611
I1
sF53229499
I1
sF65714109
I1
sF94740134
I1
sF20854776
I0
sF65320954
I1
sF79804428
I1
sF58243085
I1
sF68368399
I1
sF7321620
I1
sF55982103
I1
sF47887364
I1
sF95402010
I1
sF66435112
I1
sF61126699
I1
sF73316405
I1
sF6076472
I0
sF38484025
I0
sF73611325
I1
sF88225858
I1
sF48937027
I1
sF4077636
I1
sF12630085
I0
sF88586313
I1
sF71284813
I0
sF6043727
I1
sF13613140
I0
sF50313303
I0
sF70957147
I0
sF28325994
I1
sF37828716
I0
sF32389244
I0
sF83966080
I1
sF24754313
I0
sF13383818
I1
sF21012162
I1
sF25213072
I1
sF34715793
I1
sF22689939
I1
sF68630678
I1
sF79378584
I0
sF21444766
I1
sF17184934
I1
sF43825325
I1
sF5748910
I1
sF69318832
I0
sF79870130
I1
sF21641400
I1
sF47265977
I1
sF13088957
I1
sF10139849
I1
sF34960418
I1
sF19085527
I-1
sF68204763
I0
sF21403001
I1
sF9877729
I1
sF19209937
I-1
sF33044712
I1
sF25540854
I0
sF38091000
I1
sF11778308
I1
sF79149320
I1
sF51951893
I-1
sF10533142
I1
sF15251750
I1
sF26491175
I1
sF55261481
I0
sF20953386
I1
sF6895918
I-1
sF59324719
I1
sF99006770
I1
sF50280755
I0
sF72235316
I-1
sF12073274
I0
sF47921468
I1
sF23869769
I1
sF49461578
I-1
sF702797
I1
sF40974680
I1
sF11581793
I0
sF71842153
I1
sF78231914
I1
sF98023793
I1
sF2832760
I0
sF5813311
I-1
sF86849919
I-1
sF79214976
I0
sF81279370
I1
sF90054382
I0
sF74987926
I1
sF43366808
I1
sF7584155
I1
sF51198364
I1
sF16169383
I-1
sF66533804
I-1
sF91535794
I1
sF67975603
I1
sF64698804
I1
sF29604277
I1
sF59488704
I0
sF85834177
I-1
sF55949766
I1
sF74955209
I1
sF46905802
I1
sF22034891
I1
sF99432908
I-1
sF50241272
I1
sF65124819
I1
sF29735383
I0
sF1391064
I1
sF5061082
I-1
sF6666724
I0
sF66238956
I-1
sF16497134
I1
sF17152497
I-1
sF21019122
I-1
sF1358323
I-1
sF69024244
I1
sF98941430
I0
sF75839998
I-1
sF37009921
I1
sF93829637
I1
sF275543
I0
sF93207054
I1
sF66501135
I1
sF87144978
I0
sF23311449
I0
sF21772826
I1
sF90389023
I0
sF57883168
I-1
sF40450611
I1
sF29702713
I1
sF44440042
I0
sF83835459
I1
sF63289943
I1
sF9091673
I1
sF20018277
I1
sF63912546
I1
sF75741797
I1
sF52771440
I1
sF8141428
I1
sF18397820
I1
sF3443137
I0
sF76888720
I0
sF1424020
I1
sF68138094
I1
sF95238821
I1
sF16038567
I-1
sF54669390
I1
sF60537520
I1
sF22919865
I-1
sF63840031
I1
sF36977340
I1
sF5028541
I0
sF8862414
I1
sF22166231
I1
sF83311321
I0
sF43399898
I1
sF64211407
I0
sF2538204
I1
sF41335525
I1
sF95632102
I1
sF76430059
I1
sF10074862
I1
sF42154737
I0
sF35175158
I1
sF85998332
I1
sF67713796
I1
sF46746070
I0
sF60144393
I1
sF3980043
I1
sF83409677
I1
sF91077390
I1
sF84556559
I-1
sF1096471
I-1
sF96287517
I1
sF29797084
I1
sF94461746
I1
sF57424700
I1
sF77151044
I1
sF48970566
I1
sF3947341
I-1
sF95013347
I1
sF69647188
I-1
sF54770528
I0
sF59259745
I1
sF57457508
I-1
sF45300586
I1
sF96549741
I1
sF14138222
I0
sF83049331
I0
sF16890741
I1
sF342904
I0
sF78186987
I0
sF70335369
I1
sF65420170
I1
sF54016907
I1
sF60242831
I1
sF36256657
I0
sF25869215
I1
sF4602785
I1
sF37501862
I1
sF10894250
I0
sF81017772
I0
sF94124976
I1
sF43760565
I1
sF50150327
I-1
sF53430772
I1
sF63224763
I-1
sF7790410
I1
sF90651585
I1
sF93109187
I0
sF70335429
I0
sF11025365
I0
sF54049750
I-1
sF85867481
I0
sF53033948
I1
sF25305999
I-1
sF66960364
I1
sF72301553
I1
sF16572243
I1
sF84818932
I1
sF86195189
I-1
sF95108088
I1
sF17742847
I-1
sF27606024
I1
sF21904394
I-1
sF62012429
I1
sF94977064
I1
sF93240371
I-1
sF38878263
I0
sF59751483
I1
sF24460351
I-1
sF75938882
I1
sF18201667
I0
sF62372932
I1
sF32289975
I0
sF30325837
I1
sF98221136
I0
sF46447701
I-1
sF55478799
I1
sF5520484
I1
sF1981548
I1
sF83954194
I1
sF75086958
I1
sF94485616
I1
sF52608115
I1
sF23575670
I1
sF94649475
I1
sF8797316
I-1
sF9256079
I0
sF57326756
I-1
sF99138731
I1
sF71777454
I1
sF56933552
I1
sF34651315
I-1
sF93336777
I1
sF65846462
I1
sF21937357
I0
sF47070415
I1
sF19840209
I-1
sF32390359
I1
sF47987930
I1
sF30489822
I1
sF22940197
I-1
sF36322534
I1
sF539894
I1
sF59063544
I-1
sF42614014
I1
sF90029311
I1
sF13876497
I1
sF5618964
I-1
sF92028195
I0
sF87276837
I1
sF83303938
I0
sF9059637
I0
sF81345847
I1
sF44318012
I1
sF81575230
I-1
sF30129471
I1
sF18365764
I1
sF85835085
I-1
sF5061974
I-1
sF56900955
I-1
sF62537053
I1
sF13253982
I0
sF68697454
I1
sF23805295
I0
sF90488183
I1
sF22776773
I1
sF38419836
I-1
sF29801857
I-1
sF59489670
I-1
sF98221447
I-1
sF7323017
I1
sF70729102
I1
sF17808796
I1
sF65322403
I-1
sF92421540
I0
sF13778355
I1
sF21449289
I1
sF53134196
I1
sF31243708
I0
sF78986690
I1
sF26623442
I1
sF14400984
I1
sF94354911
I1
sF10829294
I-1
sF18595312
I1
sF30948858
I0
sF57130491
I1
sF49233405
I1
sF44514834
I-1
sF56737302
I1
sF3587616
I1
sF27999780
I1
sF98254381
I1
sF17219118
I-1
sF7945775
I-1
sF21413428
I1
sF28524088
I1
sF16989757
I1
sF29539910
I0
sF71024201
I0
sF89374282
I-1
sF29504781
I1
sF278097
I0
sF51166815
I1
sF97893987
I1
sF51232363
I1
sF8863344
I-1
sF69025398
I-1
sF8076929
I0
sF7487106
I0
sF59929878
I1
sF49462918
I1
sF41303688
I1
sF8175243
I1
sF59850380
I1
sF29408910
I1
sF79759981
I1
sF13319829
I1
sF42253990
I0
sF3948205
I0
sF86654638
I1
sF52084402
I-1
sF12730039
I1
sF71677215
I1
sF19775165
I0
sF86687423
I-1
sF60374730
I1
sF24493771
I1
sF92716750
I0
sF89636566
I-1
sF43682425
I0
sF62766816
I1
sF54050529
I1
sF53329647
I0
sF75669459
I0
sF89308921
I1
sF79576828
I1
sF2932483
I1
sF42548996
I-1
sF73318151
I1
sF48774931
I1
sF56934169
I1
sF25310391
I0
sF9813802
I0
sF97664812
I1
sF23609134
I1
sF99598129
I1
sF13844277
I1
sF47103804
I1
sF75317054
I1
sF45694787
I1
sF19428662
I1
sF24985424
I0
sF95567697
I0
sF57950041
I1
sF95731548
I-1
sF45367144
I1
sF91373419
I1
sF11222893
I1
sF79216494
I0
sF17940338
I1
sF38780795
I-1
sF94617469
I-1
sF29048709
I-1
sF79675270
I-1
sF91013011
I-1
sF25542553
I1
sF38494192
I1
sF41224860
I1
sF30425004
I-1
sF61128622
I1
sF55820214
I1
sF81805239
I1
sF17809342
I1
sF82264005
I1
sF54542279
I0
sF58343370
I1
sF85019299
I-1
sF36028378
I0
sF41566178
I0
sF58965991
I0
sF88817651
I1
sF94257144
I-1
sF37306362
I1
sF46383107
I1
sF12599306
I-1
sF15941650
I1
sF64569364
I1
sF56541207
I1
sF60454608
I1
sF68665381
I1
sF48513062
I1
sF92028967
I0
sF92651563
I0
sF8699948
I0
sF47202350
I-1
sF89702451
I-1
sF44089397
I-1
sF78004283
I1
sF92717117
I0
sF65617983
I1
sF24789056
I0
sF8044610
I-1
sF62472261
I1
sF87179350
I0
sF44908640
I0
sF3784804
I1
sF47390737
I1
sF53133424
I-1
sF97684158
I-1
sF45564023
I1
sF40681608
I-1
sF59588749
I1
sF71155860
I0
sF7553180
I0
sF84164767
I1
sF67158182
I1
sF75350194
I1
sF2506934
I0
sF80855224
I1
sF94650556
I1
sF18268357
I-1
sF80330954
I1
sF93962448
I-1
sF88686804
I0
sF41697501
I1
sF83946645
I0
sF44220641
I1
sF58409188
I0
sF4112613
I-1
sF50479334
I-1
sF49103079
I1
sF87933162
I1
sF2900210
I-1
sF60965109
I1
sF90642911
I0
sF50267825
I0
sF10633466
I1
sF91414570
I1
sF99827967
I-1
sF9027844
I1
sF311557
I1
sF61292818
I0
sF60408083
I1
sF59326740
I-1
sF37699866
I-1
sF71614752
I1
sF40517923
I1
sF48120100
I1
sF6373673
I1
sF10141999
I0
sF79151412
I1
sF94486843
I1
sF90194238
I1
sF27771199
I1
sF44515649
I-1
sF48447812
I0
sF6013258
I1
sF60932429
I1
sF22356721
I0
sF54824388
I1
sF82301
I0
sF52912192
I1
sF64897419
I1
sF7291278
I0
sF18301328
I1
sF31211921
I0
sF55820692
I-1
sF54706586
I0
sF19251623
I1
sF37470634
I1
sF58999213
I1
sF52508061
I1
sF5685681
I1
sF29868466
I1
sF99893686
I-1
sF80298434
I1
sF57164229
I1
sF26689997
I-1
sF934355
I1
sF39338456
I0
sF58114523
I-1
sF95240671
I-1
sF15811040
I0
sF25182692
I1
sF96813543
I-1
sF93995496
I0
sF50610665
I1
sF15417842
I1
sF69558355
I1
sF3457525
I1
sF1819132
I1
sF72434179
I1
sF77677066
I1
sF90391059
I0
sF22626855
I1
sF77513263
I1
sF45924915
I1
sF16925238
I-1
sF67289655
I1
sF51397177
I1
sF26886714
I-1
sF70435403
I1
sF82625128
I1
sF24265321
I-1
sF14140010
I0
sF52380269
I1
sF56516713
I1
sF68207231
I1
sF25248389
I0
sF99402374
I-1
sF49365644
I1
sF19513999
I0
sF43664026
I0
sF71320221
I0
sF180902
I-1
sF76792489
I1
sF19874480
I1
sF35930801
I0
sF73089714
I1
sF55198400
I1
sF83313347
I1
sF47497927
I0
sF78889679
I1
sF47596242
I1
sF76563167
I0
sF67388131
I-1
sF62472932
I-1
sF8078053
I1
sF18301676
I0
sF69520168
I1
sF30482558
I1
sF98419447
I-1
sF55883220
I1
sF21676794
I-1
sF73515778
I0
sF75580164
I0
sF64602887
I-1
sF42681100
I1
sF80495388
I-1
sF81117985
I0
sF11518755
I1
sF63882020
I1
sF31441701
I-1
sF71981332
I1
sF21775143
I1
sF30425900
I1
sF21807919
I1
sF63685427
I1
sF4408116
I1
sF84493109
I0
sF58114873
I1
sF97469242
I1
sF44974908
I1
sF12141376
I1
sF1652192
I0
sF54772549
I0
sF344905
I-1
sF29475659
I0
sF64561293
I1
sF115552
I1
sF44811113
I-1
sF31834993
I-1
sF95732596
I-1
sF88195957
I1
sF19710839
I1
sF36782971
I1
sF45761418
I0
sF2704273
I-1
sF70075283
I0
sF64963477
I1
sF62899096
I-1
sF22725529
I1
sF79634587
I0
sF88523697
I1
sF771003
I1
sF43402172
I-1
sF48448458
I1
sF55493585
I1
sF97207254
I0
sF22954975
I1
sF26428391
I-1
sF64537578
I1
sF84263929
I0
sF36271615
I1
sF82756604
I-1
sF26461191
I0
sF16696335
I1
sF50250768
I1
sF83575826
I-1
sF28034075
I1
sF74925085
I1
sF35898407
I1
sF74433576
I1
sF86164534
I-1
sF6833210
I0
sF7128126
I-1
sF76497984
I1
sF80200769
I1
sF75220043
I-1
sF17450060
I1
sF95044693
I1
sF55559255
I1
sF46548058
I1
sF38519905
I-1
sF66503780
I1
sF42943595
I1
sF99075180
I1
sF44549231
I1
sF54674545
I1
sF29181050
I1
sF31704189
I1
sF37864583
I1
sF25379976
I-1
sF89932942
I0
sF90813976
I1
sF11322515
I1
sF57558166
I1
sF902295
I0
sF81773729
I1
sF73745570
I1
sF64610502
I-1
sF87245991
I1
sF31236295
I-1
sF73319597
I-1
sF99075250
I1
sF99599540
I0
sF49759413
I-1
sF43631798
I0
sF34522295
I1
sF94880954
I0
sF19481793
I1
sF1164496
I1
sF41436369
I-1
sF70173908
I0
sF28820699
I1
sF6491003
I1
sF88163559
I0
sF17089777
I1
sF27260457
I0
sF5293314
I-1
sF58246406
I1
sF68928779
I0
sF49890574
I0
sF16780163
I0
sF11093280
I0
sF59262245
I1
sF11355432
I-1
sF87967019
I-1
sF67477725
I1
sF62932284
I1
sF27477309
I1
sF7423310
I-1
sF35898708
I-1
sF57394519
I-1
sF10281188
I1
sF72631646
I-1
sF76137828
I0
sF98846053
I1
sF43435376
I0
sF50316661
I1
sF80528764
I1
sF44516738
I-1
sF23938441
I1
sF10175885
I1
sF9389457
I1
sF45270420
I1
sF43173280
I-1
sF79644067
I1
sF2770341
I1
sF18531775
I1
sF99272134
I1
sF13716386
I1
sF96945614
I0
sF75548125
I1
sF88262112
I1
sF82789857
I1
sF1590755
I1
sF21579247
I1
sF77579762
I1
sF74827261
I1
sF96814605
I1
sF66438680
I1
sF61687322
I-1
sF28427812
I1
sF41403949
I1
sF78890542
I1
sF82855471
I1
sF33998384
I1
sF28067380
I-1
sF38782524
I1
sF47302207
I1
sF49628736
I-1
sF82167361
I0
sF18138707
I0
sF87410261
I1
sF14927446
I0
sF74794586
I1
sF93505122
I0
sF778513
I-1
sF1656424
I1
sF57772988
I0
sF76695150
I1
sF23742071
I1
sF95045244
I-1
sF67434090
I1
sF80529023
I1
sF71157384
I1
sF22202000
I0
sF1689233
I1
sF63325850
I1
sF1787550
I1
sF41126853
I1
sF14927527
I1
sF97076919
I-1
sF31684212
I1
sF31475387
I1
sF15222462
I1
sF12306118
I1
sF66995922
I1
sF9717459
I0
sF99632853
I1
sF37078742
I1
sF30602874
I1
sF24495840
I0
sF89278184
I0
sF30590704
I1
sF52053749
I1
sF46384888
I0
sF81446655
I1
sF97404674
I-1
sF25118479
I-1
sF67847965
I-1
sF18728738
I1
sF24594213
I1
sF345898
I0
sF9571452
I1
sF80856891
I0
sF48973628
I0
sF98551616
I1
sF64177987
I1
sF34817865
I0
sF94357323
I1
sF26363735
I1
sF84315108
I0
sF25053023
I1
sF23283552
I1
sF2344802
I0
sF70633315
I1
sF29280105
I1
sF15091565
I0
sF15812465
I0
sF17876850
I1
sF77547380
I1
sF96946040
I0
sF57886599
I0
sF23873422
I1
sF14370703
I0
sF81905555
I0
sF83249048
I1
sF92653467
I-1
sF14337949
I1
sF30754725
I0
sF51333041
I1
sF88885176
I-1
sF2607043
I1
sF61753286
I1
sF7620552
I-1
sF66930638
I1
sF68690253
I0
sF38291413
I1
sF19810262
I1
sF50808797
I1
sF39274466
I1
sF98007007
I1
sF66701295
I1
sF49596407
I1
sF81217536
I1
sF6342663
I1
sF43108361
I0
sF41109527
I-1
sF37931033
I1
sF33277982
I1
sF32950311
I0
sF38160435
I-1
sF29696350
I-1
sF84592697
I1
sF84920380
I1
sF86263870
I1
sF32065599
I1
sF32720967
I0
sF46516301
I1
sF70502479
I1
sF30034001
I-1
sF98846806
I0
sF83150937
I1
sF69027947
I1
sF76531820
I1
sF77908083
I1
sF85674102
I0
sF81807479
I-1
sF40421508
I-1
sF60999819
I0
sF88950932
I0
sF9652376
I1
sF79317148
I1
sF32458914
I1
sF9619620
I-1
sF10602677
I1
sF76859575
I-1
sF95674740
I1
sF42551486
I0
sF56314047
I1
sF15616198
I1
sF7620820
I1
sF54347990
I-1
sF60639447
I1
sF62802137
I-1
sF82299098
I1
sF47302875
I0
sF8407261
I1
sF66734304
I1
sF17872592
I1
sF20072675
I1
sF13650148
I1
sF99666149
I0
sF23644393
I1
sF4638954
I0
sF34916599
I1
sF19815544
I0
sF73746683
I-1
sF83740926
I1
sF24496392
I0
sF64440588
I-1
sF7325968
I1
sF40651029
I1
sF59164954
I1
sF93178168
I-1
sF17680700
I0
sF40143925
I1
sF83642689
I1
sF27380041
I1
sF48122187
I1
sF83151184
I1
sF2979555
I1
sF54621924
I1
sF58640731
I0
sF12863836
I1
sF30165341
I1
sF60115294
I-1
sF94205669
I1
sF68241761
I1
sF74434914
I1
sF3983716
I-1
sF47204716
I1
sF82168177
I1
sF24562035
I1
sF53889404
I1
sF7391622
I-1
sF82758025
I-1
sF8276365
I1
sF47401360
I1
sF66701723
I1
sF21744030
I-1
sF44845476
I1
sF82594219
I0
sF2148783
I1
sF28789169
I1
sF51891273
I1
sF52283836
I1
sF86657471
I1
sF21744069
I1
sF72141256
I-1
sF97274319
I0
sF62376406
I1
sF81938903
I1
sF83151320
I1
sF39733723
I1
sF46287331
I0
sF31607271
I1
sF4082153
I1
sF14207472
I0
sF20826612
I1
sF75778558
I1
sF20728319
I1
sF60017154
I-1
sF953432
I-1
sF99863067
I1
sF38455836
I1
sF91081245
I-1
sF67717670
I1
sF9554481
I-1
sF78170675
I-1
sF85888095
I1
sF96586306
I1
sF27445833
I1
sF94136789
I0
sF1559120
I1
sF41667155
I1
sF4115028
I-1
sF91507285
I1
sF52218455
I1
sF93014626
I1
sF7096933
I-1
sF71420522
I1
sF95406703
I-1
sF510579
I1
sF50842235
I1
sF54610557
I1
sF73878153
I0
sF30329482
I-1
sF70699661
I0
sF9554580
I0
sF92540014
I1
sF88820377
I1
sF48024219
I0
sF97569437
I1
sF30853791
I1
sF98650785
I0
sF70175394
I0
sF96717475
I0
sF49695396
I-1
sF70885830
I1
sF12700326
I-1
sF92293812
I1
sF78629561
I1
sF86237011
I-1
sF92883648
I0
sF65850054
I-1
sF182983
I1
sF37702348
I1
sF92654286
I1
sF2378453
I-1
sF34556631
I1
sF36031195
I1
sF3951329
I-1
sF21842658
I1
sF87231612
I1
sF16545575
I1
sF18598636
I0
sF34196218
I1
sF21613308
I1
sF85740289
I1
sF13323015
I0
sF80366347
I-1
sF99765011
I-1
sF74861332
I1
sF45992731
I-1
sF91278120
I1
sF45959977
I0
sF92785453
I0
sF58575662
I1
sF63884090
I1
sF36326204
I0
sF53103421
I-1
sF94456642
I-1
sF80137027
I-1
sF89901892
I1
sF8777692
I1
sF32688974
I1
sF69028687
I1
sF26430290
I1
sF31574878
I1
sF59984735
I1
sF64277345
I0
sF93571940
I0
sF58936466
I0
sF42978167
I-1
sF44944260
I1
sF183178
I1
sF70634381
I0
sF89770894
I1
sF2214799
I0
sF34458523
I1
sF68668319
I1
sF44420002
I1
sF79874982
I1
sF9391016
I1
sF15879081
I1
sF77679530
I1
sF38161324
I-1
sF36162479
I1
sF150450
I1
sF81087411
I-1
sF22498232
I-1
sF38816697
I-1
sF44616637
I-1
sF64179134
I-1
sF45992895
I-1
sF27872196
I0
sF19745736
I-1
sF7424969
I1
sF45697997
I0
sF92223310
I1
sF72567768
I1
sF88591323
I1
sF13323228
I1
sF34524132
I1
sF15649767
I-1
sF91540465
I1
sF33442802
I1
sF32754678
I-1
sF86232056
I-1
sF46418955
I0
sF85838865
I1
sF17910803
I-1
sF58117141
I0
sF4475930
I0
sF26758173
I1
sF73550880
I0
sF48483361
I-1
sF17615910
I1
sF92621863
I-1
sF92752943
I0
sF31870006
I1
sF22039608
I1
sF72469566
I1
sF30592073
I0
sF92785739
I0
sF3591246
I-1
sF117945
I1
sF28828175
I1
sF38325343
I-1
sF47205477
I1
sF57003111
I-1
sF15191147
I1
sF66276464
I1
sF24733297
I0
sF24333434
I1
sF77155453
I1
sF13421694
I1
sF52677778
I1
sF17484956
I1
sF96155505
I1
sF95276200
I1
sF64900267
I1
sF9096371
I1
sF62999737
I-1
sF14568648
I1
sF36228303
I1
sF35212496
I0
sF89214187
I1
sF84888815
I-1
sF72010993
I-1
sF87870707
I-1
sF29412597
I1
sF53824758
I-1
sF74468602
I1
sF14961918
I1
sF92359935
I0
sF41700611
I1
sF76729629
I0
sF22891814
I1
sF51629358
I1
sF25283887
I1
sF56413492
I0
sF58314041
I1
sF609596
I1
sF12690501
I1
sF57702284
I1
sF85478732
I-1
sF95505746
I1
sF12864852
I1
sF98454870
I1
sF38915419
I1
sF48221546
I1
sF52907371
I1
sF26529133
I0
sF92163439
I1
sF17747312
I0
sF18533745
I-1
sF32820599
I0
sF41667968
I1
sF57167249
I-1
sF45998659
I1
sF96881903
I1
sF42159516
I-1
sF51072414
I1
sF26201511
I-1
sF87248319
I1
sF21024196
I1
sF44748229
I0
sF42847688
I-1
sF65021104
I1
sF4967896
I1
sF65009572
I1
sF18337245
I1
sF39996896
I-1
sF1658337
I1
sF43732453
I0
sF27184631
I0
sF82497016
I0
sF67390969
I1
sF3001885
I0
sF5033502
I1
sF16764447
I0
sF1494561
I0
sF36163120
I1
sF77385266
I0
sF88395322
I1
sF16076350
I1
sF51596866
I-1
sF20336197
I-1
sF30395985
I1
sF26463827
I0
sF42749526
I1
sF10014306
I1
sF9293411
I1
sF79351399
I1
sF37670518
I0
sF96194168
I1
sF88821373
I0
sF5918335
I1
sF12570244
I0
sF6868615
I1
sF88395400
I1
sF3493515
I0
sF7097998
I-1
sF61165201
I1
sF52711061
I1
sF92917398
I0
sF30428828
I1
sF72371874
I1
sF57527976
I1
sF33640107
I1
sF65457840
I0
sF35252901
I1
sF12406458
I0
sF26660539
I-1
sF86560444
I0
sF52711104
I-1
sF68341441
I1
sF90492610
I1
sF43142851
I1
sF75583172
I0
sF609992
I1
sF65359567
I0
sF32427729
I0
sF39997145
I0
sF75583196
I1
sF66019962
I1
sF29183714
I-1
sF70536931
I1
sF88231656
I1
sF87346935
I1
sF89280249
I-1
sF45469435
I1
sF95506173
I0
sF82366208
I1
sF34918147
I1
sF18042632
I1
sF95375113
I0
sF31903499
I1
sF97636111
I0
sF80432913
I1
sF69947154
I1
sF91622702
I-1
sF54939417
I1
sF31182620
I-1
sF72382429
I1
sF29544249
I0
sF98881339
I1
sF22499136
I1
sF63655746
I0
sF37211972
I1
sF62541639
I1
sF84299592
I1
sF4771657
I-1
sF77123407
I1
sF79613779
I1
sF38948694
I-1
sF23547735
I0
sF47030929
I1
sF74010473
I1
sF72437610
I1
sF33312619
I0
sF33083246
I1
sF16928623
I0
sF32984947
I-1
sF4444021
I1
sF17911671
I-1
sF51761016
I-1
sF93966204
I1
sF49303421
I1
sF23908224
I1
sF46256002
I1
sF7655299
I1
sF17649544
I0
sF49336207
I0
sF89968529
I-1
sF77516690
I1
sF9621397
I0
sF62541718
I0
sF35147674
I1
sF9140208
I-1
sF35999662
I-1
sF41897932
I0
sF85184464
I1
sF87052267
I1
sF22302700
I-1
sF65130479
I0
sF16175089
I1
sF6934515
I0
sF78696438
I0
sF92393471
I1
sF25546756
I-1
sF51531786
I1
sF36229131
I-1
sF23285786
I1
sF45764646
I1
sF94031916
I-1
sF34197552
I1
sF38228028
I0
sF3461188
I1
sF29872198
I0
sF21188683
I1
sF49664076
I1
sF14110799
I1
sF57757784
I1
sF56709209
I1
sF5296218
I1
sF74109020
I1
sF91770981
I0
sF39634894
I1
sF57856110
I1
sF45404273
I1
sF85217398
I1
sF62607480
I1
sF8409215
I1
sF61296774
I-1
sF15749255
I1
sF73224328
I1
sF76828813
I0
sF26497176
I0
sF35737758
I1
sF16699551
I1
sF3362976
I0
sF32264360
I1
sF11522223
I0
sF80335024
I1
sF63983805
I0
sF10178750
I1
sF55300288
I0
sF70144194
I1
sF20816587
I1
sF6770886
I1
sF96587976
I1
sF7688393
I-1
sF9392330
I0
sF16994509
I1
sF71880920
I1
sF81175248
I1
sF82792674
I1
sF9064680
I0
sF79712497
I0
sF43274492
I1
sF95637758
I1
sF54350083
I0
sF60346632
I-1
sF14209300
I0
sF98980130
I1
sF33149228
I-1
sF3002672
I-1
sF58511669
I0
sF61296955
I1
sF22565184
I-1
sF67719494
I-1
sF81219919
I1
sF53039441
I1
sF46354780
I1
sF37540197
I1
sF21221734
I0
sF51007847
I1
sF45240693
I-1
sF88232317
I0
sF91640195
I1
sF75632022
I1
sF84464006
I1
sF72208779
I1
sF5919119
I1
sF35115425
I1
sF86331810
I1
sF67871473
I1
sF18272681
I1
sF1036722
I0
sF29020596
I1
sF12433481
I1
sF43536837
I1
sF23974352
I-1
sF23318993
I1
sF72962521
I1
sF72634842
I1
sF88068577
I1
sF4542948
I-1
sF51400103
I1
sF77877744
I1
sF1888756
I1
sF19517943
I-1
sF91295147
I1
sF512516
I1
sF92131847
I0
sF57725450
I1
sF60346902
I1
sF13062690
I-1
sF68925531
I1
sF54219303
I-1
sF38851116
I1
sF63754797
I0
sF17748527
I-1
sF14996017
I0
sF44782131
I0
sF24924724
I-1
sF23319116
I-1
sF78795343
I1
sF77943377
I1
sF34394709
I1
sF19190360
I1
sF40915545
I1
sF42095195
I1
sF36590174
I-1
sF50713187
I-1
sF81252969
I1
sF34787960
I-1
sF12833406
I0
sF13554303
I0
sF10572416
I0
sF22303365
I0
sF32035464
I0
sF40784531
I1
sF94917270
I1
sF60084887
I1
sF59870660
I1
sF64115370
I-1
sF97062343
I1
sF56316588
I-1
sF49697454
I1
sF36197040
I1
sF75846323
I0
sF13292217
I1
sF14668479
I1
sF45339329
I1
sF77615831
I1
sF83186392
I0
sF79385305
I1
sF97604321
I1
sF31707897
I-1
sF91050750
I1
sF15618815
I1
sF34558729
I1
sF31216395
I0
sF49009429
I1
sF72930074
I0
sF58970917
I1
sF78861094
I0
sF2118446
I-1
sF70832943
I1
sF27415345
I1
sF91542322
I1
sF12833588
I1
sF77353786
I-1
sF1463113
I1
sF1430353
I0
sF81711954
I1
sF66999129
I0
sF13980521
I1
sF77976432
I1
sF25908084
I-1
sF31413109
I1
sF14144379
I0
sF10998654
I-1
sF99603330
I1
sF31118230
I1
sF59298712
I1
sF25383834
I-1
sF41800605
I1
sF51663777
I1
sF3789731
I0
sF58479526
I-1
sF11785134
I1
sF65852335
I0
sF21433
I-1
sF76665788
I-1
sF53105602
I-1
sF64181189
I1
sF37147591
I1
sF98980808
I1
sF84235209
I0
sF53990347
I1
sF84829005
I1
sF18764767
I1
sF6902756
I0
sF53367796
I0
sF51172342
I1
sF76665849
I-1
sF57544192
I-1
sF57070596
I1
sF73174529
I1
sF76600328
I-1
sF74535949
I0
sF46126097
I1
sF5166101
I1
sF97473559
I1
sF6280221
I1
sF74306594
I1
sF4379694
I1
sF50353199
I-1
sF66212913
I0
sF98456633
I1
sF30757952
I0
sF9229384
I-1
sF73552974
I1
sF17978447
I1
sF40457302
I1
sF56841309
I1
sF63853666
I1
sF47797352
I1
sF99898476
I0
sF17126512
I1
sF47764602
I0
sF61297789
I0
sF77911169
I1
sF56546434
I1
sF52384904
I0
sF2086029
I-1
sF32101524
I0
sF51926171
I-1
sF4904098
I-1
sF79975589
I1
sF35116205
I1
sF85349559
I0
sF39539902
I0
sF39802053
I1
sF6411462
I-1
sF6477000
I1
sF54285517
I1
sF75257047
I1
sF87151833
I0
sF96228590
I1
sF46322937
I1
sF68179197
I1
sF25253120
I1
sF13751562
I0
sF23221524
I1
sF6444315
I1
sF52122909
I0
sF38065439
I1
sF66631899
I0
sF9721125
I1
sF54613292
I1
sF16766253
I1
sF40523059
I1
sF95409463
I1
sF70767930
I-1
sF88001458
I1
sF12703042
I1
sF12178755
I1
sF49599815
I0
sF87938377
I1
sF32494923
I1
sF120140
I-1
sF41538904
I0
sF23844185
I1
sF93279579
I1
sF44422501
I1
sF1299819
I0
sF26105196
I0
sF82138479
I-1
sF4085106
I1
sF46323060
I1
sF45438329
I-1
sF13292937
I1
sF59168143
I1
sF41804697
I1
sF85677484
I-1
sF80205230
I0
sF29909917
I0
sF74012085
I0
sF85415353
I0
sF48784287
I1
sF35739074
I1
sF7853509
I1
sF78894535
I1
sF7460297
I-1
sF66861304
I1
sF75978199
I0
sF37934555
I-1
sF11392477
I-1
sF22531665
I1
sF50157032
I1
sF39146987
I1
sF90265073
I1
sF23680501
I0
sF19453436
I1
sF82007554
I-1
sF27153923
I1
sF72308228
I1
sF81384965
I1
sF56743437
I1
sF7755282
I-1
sF1463829
I-1
sF49174038
I1
sF19322401
I1
sF96261672
I1
sF44717609
I0
sF7296554
I-1
sF51435054
I1
sF90789427
I1
sF93738556
I1
sF92919370
I-1
sF51861068
I0
sF18404942
I-1
sF19779171
I0
sF79222361
I1
sF43046491
I0
sF51467870
I1
sF24237664
I1
sF20600417
I1
sF44360635
I1
sF28694120
I0
sF87545449
I0
sF53433970
I1
sF76076660
I1
sF79550078
I1
sF59160853
I1
sF95606402
I1
sF80926347
I0
sF89183884
I-1
sF24204943
I0
sF60216977
I1
sF6575768
I1
sF95311513
I1
sF83777178
I-1
sF18863772
I0
sF97965725
I1
sF99902405
I1
sF44684963
I1
sF80369318
I-1
sF67524274
I0
sF48682683
I1
sF54122175
I1
sF81417922
I1
sF17422021
I1
sF46618314
I0
sF45354616
I1
sF25712339
I1
sF52516566
I-1
sF40326871
I0
sF43538147
I1
sF61165181
I1
sF84006642
I1
sF62137300
I-1
sF89446160
I-1
sF44488473
I1
sF25941790
I1
sF7264042
I-1
sF61757227
I1
sF30005041
I0
sF66653833
I1
sF95885417
I1
sF24893244
I-1
sF81928245
I0
sF62650159
I1
sF19879746
I0
sF69195587
I1
sF36525893
I0
sF57169734
I1
sF24926024
I0
sF91510615
I1
sF24696673
I1
sF14636900
I1
sF1398630
I1
sF33118056
I1
sF80951612
I1
sF92166001
I1
sF46356350
I1
sF70711617
I1
sF90822551
I0
sF11871215
I1
sF99899292
I1
sF61069215
I1
sF65525668
I1
sF92624807
I1
sF35575720
I1
sF88758205
I1
sF56743871
I0
sF86071234
I1
sF25155534
I1
sF42129359
I1
sF98392016
I1
sF15325138
I1
sF70178774
I1
sF69130201
I-1
sF83097935
I1
sF34232286
I1
sF29743071
I0
sF84563936
I1
sF85940195
I-1
sF22042598
I0
sF41965558
I-1
sF61396983
I1
sF91510780
I-1
sF47241218
I0
sF30169094
I-1
sF26073100
I1
sF13785101
I0
sF19617807
I-1
sF53762076
I0
sF83417125
I1
sF51042346
I-1
sF27187247
I1
sF51992624
I1
sF52582457
I1
sF48846912
I1
sF26826824
I-1
sF80238669
I1
sF7329874
I-1
sF33970260
I0
sF6838357
I-1
sF36395112
I1
sF32659564
I1
sF39016558
I1
sF73914483
I1
sF42260597
I-1
sF68769919
I-1
sF70998146
I0
sF68769923
I1
sF74078348
I-1
sF59922578
I1
sF11720851
I1
sF40687766
I1
sF98883737
I1
sF83613850
I1
sF87054494
I0
sF51927200
I-1
sF7755938
I0
sF1877019
I1
sF16832676
I1
sF11655336
I0
sF81057965
I0
sF69064880
I1
sF74700982
I0
sF50649274
I1
sF97179836
I1
sF76437701
I1
sF49076429
I0
sF19716302
I1
sF63985876
I1
sF40884441
I1
sF56315601
I1
sF51173623
I1
sF79845625
I1
sF71489789
I1
sF89938180
I0
sF97704199
I1
sF94427403
I1
sF30955792
I0
sF54515986
I1
sF69523732
I1
sF84859157
I1
sF12343577
I0
sF97999135
I-1
sF31578404
I1
sF40196412
I-1
sF43374909
I1
sF86333775
I0
sF23255378
I-1
sF79351523
I1
sF56449378
I0
sF58120550
I1
sF65526120
I1
sF13883759
I0
sF34830739
I1
sF68475252
I1
sF43637110
I1
sF62413176
I1
sF82958713
I1
sF75192701
I1
sF645502
I1
sF99637632
I1
sF44849537
I1
sF80492950
I-1
sF33970568
I-1
sF11557259
I-1
sF89479569
I-1
sF29284754
I1
sF33642905
I1
sF57661852
I1
sF29664325
I1
sF70343079
I1
sF72898985
I-1
sF46782890
I1
sF57432499
I-1
sF58677686
I1
sF2972087
I0
sF1694138
I1
sF26109003
I-1
sF33085893
I1
sF4905415
I-1
sF71391688
I1
sF54909399
I-1
sF37935576
I1
sF42228187
I1
sF16275932
I1
sF57498079
I1
sF74209760
I1
sF50482939
I1
sF46258661
I-1
sF59860049
I1
sF42424809
I-1
sF62241191
I0
sF65133036
I1
sF42654196
I1
sF42129910
I1
sF64969209
I1
sF86727162
I0
sF57924098
I1
sF74144260
I0
sF3889671
I-1
sF81549838
I-1
sF11524626
I0
sF95967766
I-1
sF53470297
I1
sF3627548
I0
sF74734109
I1
sF22534693
I0
sF64346684
I-1
sF54843967
I1
sF52550208
I1
sF22796865
I-1
sF41802308
I-1
sF47307341
I1
sF1142996
I1
sF71096919
I1
sF26794589
I1
sF20142688
I1
sF7559779
I0
sF69196393
I-1
sF23230911
I1
sF60185212
I1
sF86760063
I-1
sF68672129
I0
sF44194438
I1
sF83843722
I1
sF13720204
I1
sF4381328
I1
sF24697491
I1
sF96423705
I1
sF51829405
I1
sF19459986
I-1
sF93510303
I1
sF23255717
I1
sF23861605
I1
sF80599720
I-1
sF37673642
I1
sF19454643
I1
sF17259195
I0
sF26573258
I-1
sF92789442
I1
sF71064259
I1
sF17881798
I-1
sF12704456
I1
sF62315209
I1
sF90823378
I1
sF2841300
I1
sF94132953
I-1
sF38197978
I-1
sF9001700
I1
sF50027237
I1
sF6544103
I-1
sF73030379
I-1
sF82303724
I1
sF58972909
I1
sF35281646
I1
sF73915123
I1
sF11950842
I1
sF50373759
I1
sF63101715
I-1
sF53959451
I1
sF47471406
I1
sF63626033
I1
sF25647926
I1
sF4447043
I0
sF82369349
I1
sF55565131
I1
sF47962957
I1
sF89250640
I1
sF44653396
I1
sF68672341
I1
sF8018776
I-1
sF61037403
I-1
sF47632187
I0
sF66083700
I-1
sF31939454
I0
sF11033472
I0
sF37313409
I-1
sF22371206
I1
sF75750292
I1
sF37829102
I1
sF13130646
I1
sF3693463
I-1
sF61004704
I1
sF41638822
I1
sF8444839
I-1
sF14408621
I1
sF96394174
I1
sF69262271
I1
sF39640003
I1
sF58088391
I1
sF33479627
I-1
sF81386452
I-1
sF82369494
I-1
sF40721372
I0
sF10542060
I-1
sF84499439
I1
sF49142770
I1
sF40786935
I1
sF48258053
I1
sF5823494
I1
sF71132332
I1
sF91315210
I1
sF9427987
I0
sF31153172
I1
sF68901918
I1
sF81732784
I-1
sF18504744
I0
sF57498666
I1
sF51207220
I1
sF24435770
I0
sF92888125
I-1
sF44653635
I1
sF75390020
I0
sF54910023
I-1
sF80829513
I0
sF90102861
I1
sF18537558
I1
sF27548761
I1
sF68344922
I1
sF64969822
I0
sF84466787
I1
sF11394149
I1
sF84204647
I1
sF42916972
I1
sF45079665
I-1
sF53042296
I1
sF58481799
I1
sF30956693
I1
sF74144918
I1
sF46849177
I1
sF86105243
I1
sF78044316
I1
sF16047261
I1
sF87809191
I1
sF65166511
I1
sF39443634
I1
sF94198963
I0
sF37941565
I1
sF52845763
I0
sF48028872
I1
sF42228941
I0
sF17554638
I1
sF1301714
I1
sF90103006
I1
sF45786320
I1
sF31939812
I1
sF3464427
I0
sF37084408
I-1
sF69917946
I1
sF46652672
I1
sF75455750
I-1
sF13491464
I-1
sF83844371
I1
sF42753309
I1
sF3595554
I1
sF47930677
I0
sF50126134
I1
sF27024695
I-1
sF11296072
I1
sF96591183
I1
sF50617680
I-1
sF11099474
I-1
sF30203223
I0
sF82664793
I0
sF6380907
I1
sF42130797
I1
sF85613938
I1
sF33086836
I1
sF95772021
I1
sF63954295
I1
sF41115004
I0
sF85053295
I-1
sF10345860
I1
sF48946594
I1
sF30924199
I1
sF56876456
I1
sF44948911
I1
sF84794800
I-1
sF99081652
I1
sF57925046
I1
sF76996025
I1
sF46521793
I1
sF83418563
I1
sF38362569
I0
sF61693395
I-1
sF91610580
I-1
sF93117912
I1
sF64904667
I1
sF8412636
I-1
sF82697711
I1
sF60710385
I1
sF16702962
I1
sF6282740
I1
sF26486014
I0
sF78011900
I0
sF31088125
I1
sF74898945
I1
sF83844610
I1
sF84106762
I1
sF24075787
I-1
sF26041874
I1
sF38592020
I1
sF77258262
I1
sF44490265
I-1
sF93380123
I1
sF70245916
I1
sF18709084
I1
sF46325292
I1
sF66936383
I0
sF5711115
I1
sF69230149
I1
sF37477964
I1
sF76282466
I1
sF24141410
I1
sF51273327
I-1
sF72408707
I0
sF4775559
I1
sF21388948
I1
sF37150357
I1
sF44115227
I0
sF34070182
I-1
sF90398376
I-1
sF46980779
I-1
sF32923308
I-1
sF47570605
I-1
sF68378288
I1
sF72776307
I0
sF49471164
I0
sF20242112
I0
sF88494028
I-1
sF42819293
I1
sF26595280
I1
sF97279718
I1
sF35905255
I1
sF22535925
I1
sF36593398
I1
sF91643642
I1
sF19226363
I1
sF42721020
I-1
sF58156333
I-1
sF25583378
I-1
sF81616660
I1
sF60874518
I1
sF36134689
I1
sF20832034
I1
sF42229540
I-1
sF19095334
I-1
sF4087593
I1
sF70311724
I1
sF72474416
I1
sF2187058
I-1
sF47800115
I-1
sF68149051
I1
sF26926912
I0
sF32661314
I-1
sF55304010
I1
sF54779731
I1
sF7266140
I1
sF64773987
I-1
sF35315560
I1
sF14245739
I-1
sF82141048
I0
sF79870612
I-1
sF30793600
I0
sF98983811
I1
sF20078468
I1
sF8773511
I-1
sF30039958
I1
sF18472856
I0
sF89153440
I-1
sF58449829
I1
sF67559335
I1
sF4677546
I1
sF58089396
I-1
sF70639546
I1
sF39509947
I1
sF58482626
I1
sF76242889
I1
sF13393869
I1
sF18964438
I1
sF95772634
I1
sF81190878
I-1
sF14573541
I1
sF20701161
I1
sF51666928
I1
sF13295607
I1
sF55533562
I-1
sF539308
I1
sF53317634
I0
sF10772500
I0
sF30334999
I1
sF78962712
I1
sF76173316
I0
sF14901288
I-1
sF42164266
I1
sF84762669
I-1
sF11427894
I1
sF18604088
I1
sF7888960
I1
sF25911361
I1
sF85844036
I1
sF61104208
I1
sF9003089
I0
sF1761363
I1
sF89864889
I1
sF27648088
I1
sF67002458
I-1
sF46325851
I1
sF25419880
I1
sF42754153
I1
sF12017776
I1
sF81780856
I-1
sF5431421
I1
sF81125523
I1
sF64675989
I0
sF27025558
I1
sF14737563
I1
sF54878366
I1
sF38494379
I1
sF44687532
I1
sF70541485
I-1
sF90431664
I0
sF33022133
I1
sF8806596
I0
sF48260470
I1
sF55861446
I1
sF95281358
I0
sF9953495
I-1
sF12902622
I1
sF92528868
I-1
sF90530022
I1
sF7332071
I1
sF75751661
I1
sF72737006
I1
sF1958134
I1
sF75751672
I-1
sF6611197
I-1
sF15687935
I1
sF94822658
I1
sF79618319
I0
sF8249617
I1
sF20833667
I1
sF36659476
I1
sF56090903
I0
sF71164192
I0
sF63496481
I1
sF46653732
I1
sF61727013
I-1
sF41181480
I1
sF83550513
I1
sF9953594
I1
sF10314061
I1
sF56320335
I1
sF13492566
I1
sF79552855
I1
sF40067426
I1
sF39182700
I1
sF88483218
I1
sF38560112
I-1
sF30105972
I1
sF40722805
I1
sF86040950
I1
sF20734330
I-1
sF18473340
I1
sF59367809
I1
sF46522759
I1
sF72409482
I1
sF71983508
I1
sF25481284
I1
sF35709346
I1
sF89678244
I-1
sF19259815
I1
sF43984284
I1
sF36790698
I1
sF17785260
I-1
sF61104560
I1
sF64545203
I0
sF41574842
I-1
sF99213755
I1
sF72726568
I0
sF55697874
I-1
sF51077588
I1
sF14639573
I-1
sF63758814
I1
sF3498464
I0
sF44720625
I1
sF61530616
I1
sF21225979
I0
sF9757183
I-1
sF64709127
I-1
sF1663497
I1
sF90038799
I-1
sF11264530
I1
sF45933076
I1
sF43760388
I1
sF29876767
I1
sF14869033
I-1
sF74080835
I0
sF48718407
I1
sF65036882
I-1
sF77161045
I1
sF91906647
I1
sF70996069
I-1
sF20865633
I0
sF23388774
I0
sF50225768
I1
sF55206505
I1
sF6152812
I1
sF99050094
I0
sF42558069
I1
sF93512314
I1
sF14901883
I-1
sF49729646
I1
sF85975709
I-1
sF13755042
I0
sF72671908
I0
sF39456881
I1
sF37806760
I0
sF93414059
I1
sF75293356
I1
sF87974574
I-1
sF17490615
I-1
sF65430205
I0
sF86434495
I1
sF20210373
I-1
sF2936952
I1
sF98853587
I1
sF5300951
I1
sF31122136
I1
sF63005403
I1
sF79880930
I1
sF99672807
I-1
sF23651049
I-1
sF75424491
I1
sF92988152
I1
sF7594749
I1
sF51700478
I1
sF57205509
I1
sF8741639
I1
sF18801436
I-1
sF93446945
I1
sF5563172
I1
sF4121383
I1
sF34890538
I-1
sF92529451
I0
sF9069356
I1
sF74048303
I1
sF10707768
I1
sF24077116
I0
sF96166717
I1
sF85680961
I1
sF61334345
I-1
sF27288397
I1
sF44720981
I1
sF73294680
I1
sF99345246
I1
sF6546272
I-1
sF99246948
I1
sF14001639
I-1
sF93119346
I1
sF90956660
I1
sF20996985
I1
sF75817851
I1
sF96789373
I1
sF72639372
I0
sF25415832
I-1
sF73458581
I1
sF15328150
I-1
sF26796953
I1
sF76080027
I-1
sF18932636
I0
sF15000477
I-1
sF20702111
I1
sF39216033
I1
sF45147046
I-1
sF123816
I1
sF39805871
I1
sF52847536
I1
sF12280760
I1
sF42913951
I-1
sF70089546
I1
sF80765888
I1
sF86468086
I0
sF28566473
I-1
sF43344848
I1
sF55960532
I-1
sF34169813
I1
sF72836055
I1
sF74605530
I1
sF39478244
I0
sF14705640
I1
sF84567018
I-1
sF52225006
I0
sF34825203
I-1
sF76964864
I0
sF93873155
I-1
sF39216136
I-1
sF54944782
I1
sF8119312
I1
sF14214181
I1
sF26436647
I0
sF89515051
I1
sF69526575
I1
sF31450169
I0
sF93545532
I0
sF20079683
I0
sF97281092
I1
sF54060107
I0
sF78439501
I1
sF69231694
I1
sF57730129
I-1
sF34530389
I1
sF39019609
I0
sF32597083
I0
sF96298078
I1
sF90334312
I0
sF9593963
I1
sF23290988
I-1
sF49669237
I0
sF55731320
I0
sF96789634
I1
sF30925957
I0
sF91677833
I1
sF7726219
I1
sF80995469
I1
sF96101912
I0
sF90531353
I1
sF2516123
I1
sF90236060
I1
sF5727389
I1
sF28206239
I1
sF58534
I0
sF44328105
I1
sF9790634
I-1
sF73491628
I1
sF10914341
I0
sF3466417
I0
sF9233588
I1
sF5039288
I1
sF88695993
I0
sF37086394
I1
sF40821949
I1
sF89613519
I0
sF11003089
I1
sF27157728
I1
sF63202535
I0
sF83911913
I1
sF46523626
I1
sF6448364
I1
sF35251443
I-1
sF83420415
I1
sF5760260
I0
sF26993938
I1
sF62678292
I1
sF15984175
I1
sF74999069
I1
sF38233378
I1
sF86637446
I1
sF37578029
I1
sF72082746
I0
sF5530940
I1
sF40685793
I1
sF50586952
I1
sF24733006
I0
sF5793103
I1
sF5039444
I1
sF51275093
I1
sF18441560
I1
sF31122785
I1
sF92267875
I0
sF58123622
I1
sF46884199
I1
sF72901994
I1
sF37315948
I1
sF4318576
I-1
sF43476342
I-1
sF63628665
I1
sF73917821
I1
sF69461375
I1
sF18638211
I1
sF49603972
I1
sF91973000
I0
sF84600205
I1
sF77718929
I1
sF15918496
I1
sF66020787
I0
sF71820731
I-1
sF40035778
I-1
sF77030851
I1
sF88204752
I0
sF35579349
I1
sF10905050
I1
sF96036335
I1
sF88729078
I1
sF13919746
I1
sF36518828
I0
sF72607243
I1
sF29386253
I1
sF13952527
I0
sF47343120
I0
sF79586834
I0
sF92366355
I1
sF20211222
I-1
sF13559320
I1
sF84239897
I0
sF49014300
I-1
sF99444254
I1
sF41281055
I0
sF18758576
I1
sF33416738
I1
sF95348259
I1
sF92628516
I1
sF95675948
I-1
sF72377903
I0
sF45180465
I0
sF24045119
I1
sF28010050
I1
sF56649285
I1
sF76670541
I0
sF94725715
I1
sF32106071
I1
sF67200601
I1
sF94168670
I1
sF96560741
I1
sF976489
I1
sF95479407
I1
sF12904049
I1
sF34236018
I1
sF8775288
I1
sF17458809
I0
sF12969598
I1
sF19850883
I1
sF83977872
I0
sF96102038
I1
sF75261591
I0
sF20833946
I-1
sF89417376
I1
sF2254499
I0
sF98985636
I1
sF57927335
I-1
sF70510250
I1
sF79095471
I-1
sF70838279
I0
sF92300984
I1
sF54879937
I1
sF78997189
I1
sF63530695
I1
sF96265931
I1
sF13493969
I0
sF19424978
I1
sF85321428
I-1
sF60024548
I1
sF67626726
I-1
sF33613548
I1
sF98494189
I1
sF56518384
I1
sF10774258
I1
sF24569590
I1
sF64546552
I1
sF49932025
I1
sF47245058
I-1
sF80865031
I1
sF21489283
I1
sF79554330
I1
sF28987696
I0
sF15197992
I1
sF9201450
I-1
sF46524203
I1
sF13657903
I1
sF90236725
I1
sF98821943
I1
sF85714745
I1
sF92759877
I1
sF70313805
I1
sF45967189
I1
sF57632598
I1
sF2942808
I1
sF45442907
I1
sF11462495
I1
sF55109472
I1
sF30336872
I1
sF49244011
I-1
sF29026157
I-1
sF92268402
I1
sF15886195
I1
sF88893304
I1
sF33056636
I-1
sF44361602
I-1
sF65628035
I1
sF85190532
I1
sF4220566
I0
sF83355537
I1
sF23095187
I1
sF8841108
I0
sF48195477
I1
sF74311574
I0
sF96069534
I1
sF41805733
I1
sF50685863
I1
sF40921000
I1
sF61204394
I1
sF88631211
I0
sF77981619
I0
sF95446974
I1
sF92792779
I-1
sF9988045
I1
sF8906703
I1
sF66414553
I1
sF22931421
I0
sF17655790
I-1
sF60909553
I1
sF15656950
I0
sF32237560
I1
sF55109625
I1
sF61401082
I1
sF7137281
I1
sF11921414
I1
sF96954375
I1
sF36694030
I-1
sF27387920
I1
sF79499609
I1
sF91744280
I0
sF2582553
I-1
sF70805542
I0
sF91645991
I0
sF18049067
I-1
sF14346294
I0
sF71854136
I1
sF88696889
I-1
sF55568442
I1
sF19359807
I1
sF32892994
I1
sF46098505
I1
sF24406094
I-1
sF79882323
I1
sF42133588
I1
sF44530702
I1
sF57960535
I1
sF66818404
I1
sF20768858
I-1
sF31844444
I-1
sF5466213
I-1
sF39970924
I1
sF16115822
I0
sF90695794
I1
sF37316723
I1
sF52390008
I1
sF46962038
I1
sF98920586
I0
sF59795595
I0
sF38430864
I1
sF27977881
I1
sF31844509
I1
sF59992227
I0
sF43935909
I1
sF24373416
I1
sF62974125
I1
sF90695858
I1
sF44918969
I-1
sF76343489
I1
sF5073102
I-1
sF4417744
I0
sF97872083
I0
sF26044629
I0
sF16836827
I-1
sF6777057
I1
sF10217701
I-1
sF77424871
I0
sF85616878
I-1
sF4706685
I0
sF22690856
I1
sF41478386
I1
sF34498809
I-1
sF99215611
I1
sF74967292
I1
sF76343560
I0
sF53799183
I-1
sF83415427
I1
sF9824536
I1
sF81914137
I0
sF33909024
I1
sF65530154
I1
sF79063344
I1
sF80079154
I1
sF56638515
I0
sF85299593
I-1
sF45508920
I1
sF18901306
I1
sF93841731
I1
sF79915336
I1
sF76785379
I1
sF75852118
I1
sF53143899
I-1
sF68413788
I1
sF15624542
I1
sF77785444
I1
sF61303152
I0
sF26077555
I1
sF10152309
I1
sF28076409
I0
sF27617658
I1
sF51505533
I0
sF88925932
I0
sF24177035
I1
sF3292226
I1
sF87845276
I-1
sF58293317
I1
sF92727719
I1
sF83782056
I1
sF40626608
I0
sF91941304
I1
sF60270324
I1
sF87714239
I-1
sF9628096
I-1
sF94157899
I-1
sF6023620
I1
sF98789834
I0
sF33319381
I1
sF49538809
I0
sF47802842
I-1
sF50719196
I1
sF30403038
I1
sF32051622
I1
sF62974461
I0
sF28338687
I1
sF27257344
I1
sF87107328
I1
sF54290946
I1
sF47475206
I1
sF91286025
I0
sF95775244
I1
sF2615824
I1
sF91712017
I1
sF11954713
I0
sF89811482
I1
sF89516571
I1
sF61991460
I0
sF32107046
I0
sF30009900
I0
sF12243378
I1
sF58223150
I0
sF44231222
I1
sF66513464
I1
sF61034932
I1
sF85715532
I-1
sF6351441
I1
sF9693786
I1
sF75852380
I0
sF89812914
I1
sF81947233
I0
sF44198501
I1
sF69429862
I1
sF37284457
I1
sF86436472
I-1
sF51735161
I-1
sF61308010
I-1
sF84273792
I1
sF30796418
I0
sF88763012
I1
sF67168907
I0
sF95054481
I1
sF89877140
I1
sF86829725
I1
sF31091359
I1
sF38136483
I1
sF25914021
I1
sF24996519
I1
sF96070321
I-1
sF95120055
I1
sF25684672
I-1
sF29518534
I0
sF50686664
I1
sF78047947
I0
sF62352086
I0
sF49703647
I-1
sF62548705
I1
sF19852007
I1
sF44067563
I0
sF99183352
I1
sF17885957
I-1
sF39611148
I-1
sF44657421
I1
sF66579214
I1
sF39152407
I1
sF14052122
I0
sF50162466
I1
sF95120164
I1
sF40758053
I0
sF58452775
I1
sF14435473
I0
sF87812905
I1
sF9136942
I1
sF9104175
I1
sF56978225
I0
sF73296697
I1
sF59173698
I1
sF59894598
I1
sF41446217
I1
sF64351052
I1
sF54356823
I1
sF11004766
I1
sF53111652
I1
sF34335594
I1
sF91548524
I0
sF12544878
I1
sF81750898
I1
sF24996723
I-1
sF4516725
I1
sF48458614
I-1
sF51276663
I1
sF99576701
I1
sF16542591
I0
sF50097024
I1
sF60320643
I1
sF85781382
I1
sF9726863
I1
sF9624684
I-1
sF36596626
I0
sF74410905
I0
sF96955292
I-1
sF55176102
I1
sF72018860
I1
sF10152879
I0
sF74083250
I1
sF41943958
I1
sF84732855
I-1
sF96431038
I1
sF20376514
I1
sF68873161
I-1
sF7826381
I-1
sF13134801
I1
sF73788371
I-1
sF82144213
I1
sF45935574
I1
sF30927834
I0
sF6187997
I1
sF7105502
I1
sF80440290
I-1
sF79260644
I1
sF62778342
I0
sF96103399
I1
sF29354985
I1
sF73478710
I-1
sF18344940
I1
sF90237933
I1
sF19164151
I1
sF65661945
I1
sF79293436
I-1
sF56650749
I1
sF83389439
I0
sF89287686
I0
sF93613067
I-1
sF96300044
I-1
sF25095184
I0
sF65858597
I1
sF97669639
I0
sF7367725
I1
sF75983920
I1
sF5476873
I1
sF58092606
I1
sF12741697
I-1
sF69987396
I1
sF61598801
I1
sF18279506
I1
sF98757716
I-1
sF36105306
I0
sF68512870
I1
sF68578409
I-1
sF81423468
I1
sF48786552
I1
sF99609721
I1
sF5893243
I-1
sF88403071
I1
sF37383315
I-1
sF40299668
I1
sF23653525
I1
sF94399642
I1
sF36203678
I0
sF47508640
I1
sF90959011
I-1
sF83225764
I-1
sF2059429
I-1
sF49179817
I1
sF11562174
I-1
sF63892673
I1
sF53210306
I1
sF6646979
I0
sF23674061
I1
sF72510676
I0
sF44985557
I1
sF27890213
I1
sF28929252
I1
sF33537233
I-1
sF48131306
I1
sF95874287
I0
sF67497200
I1
sF2747640
I1
sF9759994
I-1
sF68807936
I1
sF57109761
I-1
sF52030725
I1
sF8252688
I1
sF76082455
I1
sF45182232
I1
sF78210948
I-1
sF67464482
I0
sF52784420
I1
sF33313329
I1
sF80866603
I1
sF64777518
I1
sF51572033
I0
sF30534982
I-1
sF55766343
I-1
sF1928520
I1
sF8318282
I0
sF22244688
I0
sF76148059
I0
sF67333474
I1
sF14018449
I1
sF25448884
I1
sF52358512
I0
sF12643700
I1
sF7400823
I-1
sF57372033
I0
sF62582147
I1
sF21884301
I1
sF80637329
I1
sF66809234
I1
sF50294167
I1
sF47476125
I1
sF35286431
I1
sF71247771
I0
sF58590255
I1
sF78769578
I0
sF67693995
I1
sF45936044
I-1
sF79958600
I-1
sF38858165
I-1
sF14478782
I1
sF75296196
I1
sF59370952
I1
sF67988938
I1
sF54914512
I1
sF96136658
I1
sF45968851
I1
sF25816532
I0
sF78441942
I0
sF24735195
I1
sF93663
I-1
sF8256763
I1
sF47345127
I1
sF41872874
I1
sF70249966
I-1
sF82144752
I1
sF60976625
I0
sF80047605
I1
sF22932987
I-1
sF41610751
I1
sF16936454
I0
sF64089610
I1
sF44133901
I-1
sF50916880
I1
sF35384852
I-1
sF3993115
I1
sF3960353
I1
sF84376838
I-1
sF65203750
I1
sF63794729
I1
sF37023274
I1
sF41119275
I0
sF91516467
I1
sF45575733
I0
sF52915784
I1
sF21425737
I-1
sF24014420
I1
sF67333719
I1
sF77753945
I-1
sF81686106
I0
sF19459681
I1
sF44396132
I-1
sF29519462
I1
sF9234084
I1
sF29519477
I1
sF8908407
I1
sF20147832
I-1
sF64974461
I1
sF60092031
I0
sF46853766
I1
sF63073933
I1
sF24669851
I0
sF45149869
I1
sF72183477
I0
sF56618684
I-1
sF68710080
I1
sF78966467
I1
sF33595748
I-1
sF42004171
I0
sF22834908
I1
sF3436256
I1
sF84307681
I1
sF2125546
I1
sF44003053
I1
sF11202293
I1
sF1437431
I1
sF75067129
I-1
sF44920571
I1
sF93253375
I1
sF10350336
I1
sF323330
I1
sF54226691
I1
sF20639494
I1
sF83890817
I0
sF82598402
I0
sF40955669
I1
sF91351001
I1
sF22376217
I-1
sF63532839
I1
sF57110312
I-1
sF8154922
I0
sF85126955
I1
sF66744108
I0
sF25915183
I-1
sF65466160
I1
sF62189387
I1
sF65957712
I1
sF24342362
I0
sF15888224
I1
sF82374500
I1
sF85192550
I0
sF3698538
I1
sF95088492
I-1
sF31846253
I-1
sF85159795
I-1
sF47509368
I1
sF9138041
I1
sF90697603
I0
sF30371716
I0
sF97152902
I1
sF51670930
I1
sF52564633
I0
sF75460511
I0
sF59862955
I1
sF33288109
I-1
sF93810607
I1
sF62189489
I1
sF25423794
I1
sF22540213
I1
sF29433669
I0
sF14839748
I0
sF19558348
I0
sF52228045
I1
sF97480654
I1
sF24702930
I0
sF90927061
I-1
sF71299032
I1
sF16510937
I1
sF38236122
I1
sF18939215
I-1
sF40267740
I1
sF7794653
I0
sF61698031
I1
sF34435056
I1
sF41480181
I1
sF82440188
I1
sF44964243
I-1
sF64122897
I1
sF56094741
I1
sF40562711
I1
sF39776283
I1
sF63008799
I1
sF44855328
I1
sF53866531
I1
sF99676196
I1
sF15626277
I1
sF48754726
I-1
sF75657255
I1
sF74379307
I1
sF34730029
I1
sF97218608
I1
sF29512371
I1
sF29913145
I0
sF55513
I1
sF93351998
I1
sF41709632
I0
sF77426763
I-1
sF45019215
I1
sF45740119
I1
sF89485400
I0
sF14741593
I1
sF92729436
I1
sF39678052
I1
sF83587192
I1
sF28242048
I1
sF56389762
I-1
sF67430423
I1
sF79261836
I-1
sF27259025
I-1
sF3207319
I1
sF29212015
I1
sF67989662
I1
sF71004320
I1
sF50950307
I1
sF84272209
I1
sF8155305
I-1
sF20705455
I1
sF84635828
I1
sF99414200
I1
sF72970425
I1
sF84537530
I-1
sF25784510
I1
sF7565508
I1
sF82931912
I1
sF19919056
I-1
sF25686225
I0
sF80736466
I0
sF58454228
I1
sF14020829
I1
sF90140895
I-1
sF69890275
I-1
sF86667495
I-1
sF10350824
I1
sF27128046
I0
sF52195575
I-1
sF26767612
I1
sF95449341
I1
sF85946629
I1
sF7958790
I-1
sF44560648
I1
sF15102217
I1
sF65597712
I1
sF89583904
I1
sF7598372
I1
sF11465001
I1
sF57831723
I-1
sF84341038
I-1
sF25858781
I1
sF50917680
I1
sF74969395
I1
sF32829749
I0
sF69464381
I1
sF10645823
I1
sF15200576
I0
sF99188107
I1
sF3041334
I1
sF9924948
I1
sF77427029
I1
sF97907036
I1
sF35221859
I1
sF41251178
I1
sF92533099
I0
sF32928109
I1
sF51081589
I0
sF57635199
I1
sF48525703
I0
sF46723464
I1
sF77820308
I1
sF7205273
I1
sF11628959
I1
sF8253859
I-1
sF58519972
I1
sF3205193
I1
sF88273341
I1
sF22999487
I1
sF79294914
I1
sF75821521
I1
sF18936276
I1
sF32502231
I0
sF69792221
I1
sF76542437
I-1
sF95973868
I1
sF96727538
I1
sF63951614
I1
sF8614390
I1
sF46658041
I1
sF89747962
I1
sF20967931
I-1
sF42791421
I1
sF37515775
I1
sF30339592
I1
sF19526159
I1
sF87912231
I1
sF69071381
I1
sF54489622
I1
sF9990685
I1
sF69235232
I1
sF324130
I1
sF40038947
I1
sF13529637
I1
sF92992038
I1
sF15528489
I1
sF60027447
I-1
sF48067133
I0
sF47411777
I1
sF750154
I1
sF27521612
I-1
sF23163472
I1
sF586323
I-1
sF68055638
I1
sF81261144
I0
sF92795484
I0
sF7598686
I1
sF64385634
I1
sF36598385
I1
sF96891506
I-1
sF92697207
I0
sF27161208
I-1
sF54424185
I-1
sF25460159
I1
sF79688318
I1
sF93155969
I1
sF16296043
I-1
sF69825156
I1
sF6713991
I0
sF85553807
I1
sF49833978
I1
sF39350931
I1
sF62597230
I1
sF74412706
I-1
sF52261540
I1
sF31847077
I1
sF47903406
I-1
sF29684401
I1
sF87772572
I-1
sF5993148
I0
sF86864573
I1
sF39875262
I-1
sF12350148
I1
sF37679817
I-1
sF86209230
I1
sF76772053
I-1
sF73724630
I-1
sF31027935
I0
sF37614304
I1
sF15987431
I1
sF40792819
I1
sF67236597
I-1
sF61141755
I1
sF75887376
I1
sF80499502
I0
sF68973335
I-1
sF99185436
I-1
sF17855261
I-1
sF60748575
I1
sF1930022
I1
sF93844263
I1
sF39613225
I1
sF27259693
I-1
sF74183470
I0
sF82178879
I1
sF24212290
I1
sF79950660
I0
sF56226630
I1
sF80868172
I1
sF27947854
I1
sF40366931
I1
sF8680277
I1
sF52597561
I1
sF18117465
I1
sF55407452
I0
sF22147936
I1
sF16083088
I1
sF24245091
I1
sF99971945
I1
sF7271277
I0
sF90469230
I0
sF99218290
I1
sF67433331
I1
sF37679989
I1
sF82277242
I0
sF23982978
I1
sF56655339
I1
sF94401414
I1
sF38630280
I1
sF40360795
I-1
sF35910545
I1
sF85029783
I1
sF8876955
I1
sF57373603
I0
sF68055972
I1
sF91127805
I1
sF59582621
I-1
sF67466183
I1
sF88899063
I1
sF41030480
I1
sF88175587
I-1
sF96203751
I1
sF29488105
I1
sF89554429
I-1
sF5272560
I-1
sF97872040
I1
sF2454518
I0
sF60290040
I1
sF18084871
I0
sF47805452
I0
sF63665166
I1
sF28439570
I1
sF61928467
I1
sF19723291
I1
sF79343604
I1
sF96302111
I-1
sF11269154
I1
sF46593059
I1
sF31683625
I1
sF44692526
I1
sF84571184
I1
sF10449969
I-1
sF29291578
I1
sF45315133
I1
sF12416075
I1
sF94467148
I1
sF16577615
I0
sF50656341
I1
sF44332118
I1
sF50623580
I1
sF33846366
I1
sF69923936
I0
sF66319457
I0
sF91386979
I1
sF90502245
I0
sF84636779
I1
sF97473385
I0
sF80901243
I1
sF95319166
I1
sF87159936
I-1
sF44201090
I0
sF7697548
I-1
sF62583949
I1
sF95941775
I1
sF26178721
I1
sF80868517
I-1
sF21656743
I1
sF76805290
I1
sF74708139
I1
sF48441544
I1
sF7828670
I1
sF74183872
I1
sF20673729
I-1
sF26014920
I1
sF31028436
I-1
sF87749847
I-1
sF69629145
I1
sF89617636
I1
sF41186533
I1
sF87061740
I0
sF12973293
I1
sF26506484
I-1
sF87979255
I-1
sF35328896
I1
sF65402117
I-1
sF55768326
I-1
sF85521671
I0
sF36730121
I-1
sF23590157
I1
sF95515918
I1
sF17429776
I1
sF69530902
I-1
sF45020439
I1
sF41710872
I1
sF97056026
I1
sF5469468
I-1
sF99480861
I-1
sF56849695
I1
sF61404450
I0
sF61699369
I0
sF92894508
I1
sF34239798
I1
sF28308794
I1
sF7632188
I1
sF52098365
I1
sF89453890
I1
sF50132291
I0
sF86078788
I1
sF77264204
I1
sF49968461
I0
sF38401362
I0
sF74904919
I1
sF82736481
I1
sF36959590
I1
sF18347375
I1
sF98891123
I1
sF8418681
I-1
sF23459195
I1
sF41743740
I0
sF67905770
I1
sF47936896
I-1
sF43152776
I-1
sF57996682
I1
sF1406347
I1
sF58717580
I1
sF61658008
I0
sF64386450
I1
sF53048730
I-1
sF57037722
I-1
sF29128096
I-1
sF30668197
I1
sF17003948
I1
sF68449740
I0
sF55082573
I1
sF74970588
I1
sF41416169
I1
sF40072683
I-1
sF50263536
I1
sF98334202
I1
sF32044539
I1
sF78116351
I-1
sF95352330
I0
sF52524555
I0
sF63829529
I-1
sF27063834
I1
sF73659942
I1
sF96597545
I1
sF46528045
I1
sF94893618
I-1
sF259641
I1
sF70874684
I1
sF19232318
I1
sF55572032
I-1
sF77493826
I1
sF53999173
I1
sF521798
I0
sF6416853
I1
sF13366864
I1
sF17470392
I1
sF25884248
I0
sF1419536
I0
sF1242730
I1
sF29332413
I0
sF46364276
I1
sF66549370
I1
sF87258748
I1
sF43873932
I1
sF4290195
I1
sF18544282
I1
sF3471004
I1
sF57308830
I0
sF41407429
I1
sF48119408
I1
sF20149923
I1
sF15038123
I1
sF60683953
I1
sF75822770
I-1
sF88274612
I0
sF80636192
I1
sF8845005
I1
sF53081807
I1
sF42628816
I1
sF48059343
I-1
sF97351391
I0
sF35157729
I1
sF46659299
I-1
sF73627364
I-1
sF37680869
I1
sF8388221
I1
sF53012778
I1
sF43677447
I1
sF40498954
I0
sF52786955
I1
sF5764877
I1
sF51377941
I0
sF31749911
I1
sF84251610
I1
sF42366750
I-1
sF68238981
I0
sF48199460
I-1
sF3679215
I0
sF93386537
I1
sF69891887
I0
sF54687539
I-1
sF46289887
I1
sF68613977
I-1
sF20903771
I1
sF93648732
I1
sF20576093
I1
sF84572004
I0
sF51541878
I0
sF97810296
I0
sF64274069
I1
sF76838796
I1
sF86079380
I0
sF32962454
I1
sF59087895
I1
sF79689632
I-1
sF37877668
I1
sF97384357
I1
sF96892848
I1
sF1701814
I0
sF58652601
I1
sF90503104
I0
sF92993473
I0
sF11565012
I1
sF77264857
I0
sF40335325
I1
sF49706975
I-1
sF27523049
I1
sF27490283
I-1
sF55080940
I1
sF93222896
I-1
sF6846450
I1
sF76507475
I1
sF92141559
I1
sF91092987
I-1
sF9600682
I1
sF84015107
I1
sF32372740
I1
sF27785224
I0
sF11237390
I1
sF3995671
I0
sF28997656
I1
sF91682845
I1
sF45512735
I1
sF86308901
I0
sF19626025
I1
sF41145351
I1
sF6256698
I1
sF71956539
I1
sF54458433
I0
sF54163524
I1
sF44908215
I0
sF10123341
I-1
sF15755620
I-1
sF99547227
I0
sF55375966
I1
sF56817760
I-1
sF56686693
I1
sF87927143
I1
sF13039727
I1
sF9959543
I0
sF6256762
I1
sF35360188
I0
sF28309636
I1
sF89913482
I1
sF17561744
I1
sF61470876
I1
sF77330604
I1
sF72972475
I0
sF2440906
I-1
sF5437633
I1
sF41451211
I1
sF43219140
I1
sF1177802
I-1
sF61667533
I-1
sF91420880
I0
sF80050389
I1
sF64321754
I0
sF23689437
I-1
sF85398565
I1
sF22247655
I-1
sF40368360
I0
sF2390260
I-1
sF91683069
I1
sF77658366
I1
sF66091268
I1
sF6126207
I1
sF26727470
I-1
sF90798367
I1
sF1112365
I0
sF72808750
I0
sF22837551
I0
sF70514993
I1
sF36891017
I0
sF3340600
I-1
sF95888453
I0
sF14892768
I1
sF62814530
I-1
sF96794950
I1
sF62388557
I1
sF4352397
I-1
sF84399161
I1
sF36305242
I1
sF83523942
I1
sF19867240
I1
sF33192300
I1
sF93223286
I1
sF51935607
I0
sF33814912
I1
sF55540099
I-1
sF34830731
I1
sF36338063
I1
sF55933329
I1
sF30603667
I-1
sF95517081
I0
sF83622305
I-1
sF73333158
I1
sF77037299
I-1
sF162235
I1
sF784828
I1
sF47806911
I-1
sF81525190
I0
sF54196682
I1
sF58554827
I1
sF5843362
I-1
sF77920719
I1
sF42531290
I-1
sF92928479
I0
sF37845472
I1
sF98335202
I1
sF68975077
I-1
sF51771879
I1
sF73333229
I1
sF96139766
I0
sF67172857
I1
sF37911034
I0
sF48265725
I-1
sF95451646
I1
sF358912
I1
sF69892611
I0
sF11008517
I-1
sF89881103
I-1
sF54983191
I1
sF32864793
I-1
sF16939552
I1
sF22608418
I1
sF29653546
I-1
sF24149767
I1
sF32340524
I1
sF72940080
I-1
sF85031474
I0
sF76544565
I1
sF38468156
I-1
sF12188223
I0
sF88963650
I0
sF47610436
I1
sF36272716
I-1
sF19659342
I1
sF9730652
I0
sF47544930
I-1
sF43809385
I1
sF99383916
I-1
sF31816307
I1
sF92863098
I1
sF46295487
I1
sF13204095
I1
sF27916930
I1
sF94930452
I-1
sF77953684
I0
sF93977239
I0
sF87927236
I1
sF26606245
I1
sF33913516
I1
sF11434671
I1
sF94370487
I-1
sF77068986
I0
sF25262784
I1
sF20642500
I0
sF16480971
I1
sF85261011
I1
sF8019762
I1
sF43088605
I0
sF98826975
I0
sF49380074
I1
sF81197814
I1
sF70744831
I-1
sF40315350
I-1
sF73792264
I1
sF8551178
I-1
sF24384643
I1
sF28539677
I-1
sF43678494
I1
sF88210207
I1
sF76151584
I-1
sF45218620
I1
sF42793796
I1
sF87751494
I1
sF75561802
I-1
sF70482764
I1
sF90733389
I1
sF66344077
I1
sF42499896
I1
sF30538580
I0
sF63142743
I0
sF96020964
I1
sF68942691
I1
sF16087914
I1
sF15099019
I1
sF76414783
I0
sF90012544
I1
sF69434246
I1
sF66584386
I1
sF6912914
I1
sF35879829
I1
sF16350107
I-1
sF4488097
I-1
sF34044842
I1
sF57899951
I-1
sF64551860
I1
sF13794229
I1
sF13663172
I1
sF78117829
I1
sF21232583
I1
sF49118154
I1
sF15072207
I-1
sF52296669
I1
sF24017889
I1
sF94305262
I1
sF78117872
I1
sF30473209
I1
sF55180282
I1
sF35486715
I0
sF44694528
I1
sF46005252
I1
sF45218824
I1
sF86572046
I1
sF86211601
I1
sF61996056
I1
sF94972420
I-1
sF89914394
I-1
sF28245023
I-1
sF24476704
I1
sF59210788
I1
sF4619304
I1
sF56818729
I1
sF82115629
I1
sF29260848
I1
sF88734769
I1
sF6126642
I1
sF42068489
I1
sF52853819
I0
sF74054716
I1
sF72809539
I-1
sF37396269
I1
sF54918216
I-1
sF7951033
I1
sF99155024
I1
sF19823698
I1
sF38933689
I1
sF56654942
I1
sF71750713
I0
sF8125538
I1
sF35552355
I1
sF24640616
I1
sF10091626
I1
sF23854188
I1
sF44530799
I-1
sF1342577
I-1
sF27950197
I1
sF14106475
I1
sF52100236
I1
sF35749009
I0
sF97811610
I-1
sF39517339
I1
sF70483104
I0
sF64486571
I0
sF21298349
I0
sF87719953
I0
sF81362107
I-1
sF4357314
I1
sF14712013
I0
sF61078737
I-1
sF45186274
I-1
sF32275688
I-1
sF11107566
I1
sF37551343
I1
sF28802288
I-1
sF59440370
I1
sF19922166
I-1
sF79448428
I1
sF90864891
I1
sF22915626
I1
sF67599618
I1
sF86998276
I0
sF94960901
I1
sF50429190
I-1
sF99876107
I1
sF37977362
I1
sF65797395
I1
sF25520686
I1
sF17923972
I1
sF20118812
I1
sF25656614
I-1
sF25853223
I0
sF26672424
I0
sF79166859
I-1
sF6913325
I1
sF91487536
I0
sF3996995
I1
sF5995847
I-1
sF18316617
I-1
sF74186063
I1
sF11271506
I1
sF92896596
I1
sF81853781
I1
sF66190682
I1
sF72416609
I0
sF37059939
I-1
sF77004138
I1
sF3603822
I1
sF99286384
I1
sF64060792
I-1
sF38010772
I1
sF71662983
I1
sF50658699
I1
sF97320337
I1
sF8262894
I1
sF18611622
I1
sF86867370
I1
sF3767728
I1
sF2457012
I1
sF16514485
I0
sF42401215
I1
sF83328454
I1
sF13958601
I1
sF2391503
I1
sF59145681
I1
sF57441750
I1
sF98172381
I1
sF7044577
I1
sF57305681
I-1
sF33422826
I1
sF97451499
I1
sF35126765
I0
sF58752501
I1
sF13958647
I1
sF22511097
I1
sF18087421
I1
sF59702782
I0
sF77004301
I1
sF93322776
I1
sF88833576
I-1
sF22249001
I1
sF1343024
I0
sF47382091
I0
sF95878733
I-1
sF66354769
I1
sF24411739
I-1
sF56557151
I0
sF2489952
I1
sF5963362
I1
sF13237862
I1
sF16416361
I0
sF41352813
I1
sF6717038
I1
sF91553392
I1
sF73039481
I-1
sF37212978
I1
sF22249085
I1
sF71532162
I1
sF72154756
I0
sF58556038
I1
sF71630477
I1
sF1375889
I1
sF28016277
I0
sF79462038
I0
sF46005911
I0
sF38338201
I1
sF23232169
I1
sF4030122
I1
sF38617031
I-1
sF81690288
I1
sF65928881
I-1
sF86441655
I0
sF2358973
I1
sF63110857
I1
sF67272394
I-1
sF69500619
I1
sF60134690
I1
sF17596111
I1
sF64678520
I1
sF64541987
I1
sF42166905
I0
sF26443483
I-1
sF45809373
I1
sF15367904
I1
sF4456162
I1
sF70942436
I0
sF64028395
I1
sF14188268
I1
sF61882323
I-1
sF65984991
I-1
sF59997946
I-1
sF62979839
I-1
sF41058052
I1
sF42598149
I1
sF57343751
I1
sF1834763
I1
sF52985624
I-1
sF99483420
I0
sF6291233
I1
sF60849960
I1
sF11829035
I1
sF62521133
I-1
sF33980210
I0
sF86015795
I1
sF79789879
I1
sF26050360
I1
sF92864315
I1
sF58064701
I1
sF94437183
I1
sF12713794
I1
sF6192967
I-1
sF78184272
I1
sF13369170
I-1
sF68321107
I0
sF68091739
I-1
sF38698844
I0
sF32309087
I1
sF58392416
I1
sF884585
I1
sF46858090
I1
sF54361965
I1
sF68779897
I-1
sF62881660
I1
sF86769538
I1
sF63012740
I1
sF13107077
I1
sF71521602
I0
sF74776463
I1
sF72417171
I1
sF33401670
I-1
sF44171161
I1
sF88047516
I1
sF60850086
I1
sF11829170
I1
sF21757875
I0
sF50986938
I-1
sF24903615
I1
sF73203651
I1
sF73203652
I1
sF85622731
I1
sF86885595
I1
sF87354781
I1
sF95895546
I1
sF56262623
I1
sF49643493
I-1
sF70352873
I1
sF9601003
I-1
sF13205487
I1
sF43548665
I1
sF81599071
I1
sF64782333
I1
sF57054549
I1
s.