(lp1
F65994752
aF4358146
aF72089607
aF47579150
aF52461585
aF44072978
aF80248854
aF41877527
aF11403289
aF93279579
aF2883622
aF37388334
aF49512507
aF24969282
aF77135939
aF3768408
aF74154073
aF71991386
aF82706527
aF34111584
aF53313633
aF63209570
aF72613905
aF40140904
aF67600494
aF92700790
aF10092667
aF87031830
aF12320902
aF77922441
aF35258507
aF38633622
aF42139811
aF84410539
aF30015661
aF86409399
aF34996413
aF19469685
aF54886594
aF40861893
aF32473287
aF92012744
aF31949015
aF51314905
aF88867036
aF38568160
aF91717868
aF43450608
aF39649526
aF43385097
aF70254859
aF7635215
aF2982170
aF99680542
aF48234788
aF66683177
aF13664565
aF7176508
aF33554750
aF88113477
aF89162055
aF84902217
aF91586893
aF57246031
aF75759955
aF76677464
aF82149721
aF72712546
aF18907496
aF69304686
aF11927919
aF16351607
aF2228603
aF81101194
aF30048652
aF12419484
aF47022508
aF85033389
aF77758898
aF60621238
aF7831991
aF62816701
aF13468094
aF20808132
aF86213063
aF5210570
aF99779024
aF9142741
aF21234137
aF56361441
aF61047267
aF20251114
aF34505203
aF25821685
aF71827959
aF19431932
aF32440831
aF75727361
aF11600388
aF81101323
aF7242255
aF94437909
aF49938972
aF66388509
aF91161121
aF20283941
aF45646375
aF23724584
aF45777450
aF6914609
aF83132980
aF17826358
aF45023799
aF99188107
aF447925
aF54002240
aF25264709
aF40043079
aF68780617
aF96535124
aF58065494
aF85415353
aF26215005
aF59572830
aF92308067
aF27099751
aF37093993
aF52953707
aF6750831
aF295536
aF23396977
aF3965564
aF29557374
aF90473095
aF73269899
aF63111825
aF5603995
aF11408837
aF78381732
aF39027366
aF53740207
aF38372018
aF4620981
aF43352759
aF18776761
aF24314559
aF10027712
aF12092108
aF44630733
aF19595994
aF27788006
aF2753255
aF17531624
aF11764457
aF19792624
aF91198931
aF78021369
aF14025474
aF43385607
aF75563796
aF62358293
aF95073463
aF44860190
aF75170595
aF40665917
aF37361121
aF66847565
aF93307021
aF97452883
aF61473620
aF35941177
aF23003993
aF66159452
aF49480544
aF67044203
aF3179380
aF42632053
aF9929591
aF81331066
aF79004540
aF29885317
aF44172169
aF39158668
aF36012943
aF9503638
aF52364186
aF45876123
aF92177309
aF49611678
aF43352993
aF41233222
aF48497579
aF77235131
aF52954047
aF36635587
aF53543876
aF74777542
aF34145224
aF67470281
aF95552459
aF64160719
aF29033428
aF50201579
aF96764908
aF47547386
aF11437056
aF45843457
aF21693445
aF3376137
aF72111618
aF81384965
aF74351649
aF32186190
aF42173481
aF58590255
aF87557169
aF10421299
aF45611455
aF15434807
aF18908216
aF71959618
aF52266055
aF43091023
aF31786064
aF57312339
aF21267541
aF89261148
aF74941549
aF48595133
aF12027012
aF58492037
aF73991306
aF69305484
aF17925261
aF85066896
aF49382545
aF49677462
aF39650462
aF78054570
aF78251181
aF52004015
aF90506422
aF86475959
aF48923836
aF96339134
aF90211520
aF39847112
aF35259593
aF88877943
aF63145164
aF21660878
aF43058390
aF73073882
aF39617760
aF8226019
aF49677549
aF16542591
aF75465980
aF34014477
aF20546832
aF86181142
aF95289561
aF62096666
aF22185247
aF85781382
aF77628711
aF70845738
aF14517551
aF90789427
aF41714997
aF62883129
aF20120895
aF13698369
aF22283588
aF21628231
aF33850698
aF77759823
aF82314576
aF26248543
aF76055910
aF64783719
aF19334505
aF95356267
aF329076
aF21792117
aF66935
aF18220411
aF34080126
aF62915967
aF27067783
aF29820309
aF65701270
aF95323543
aF35554721
aF2655655
aF97486252
aF15173049
aF85624256
aF1574345
aF36373964
aF33719760
aF74057171
aF76482012
aF28083688
aF77432301
aF56919535
aF52299248
aF33195505
aF89490932
aF69797369
aF81987066
aF29853180
aF22382077
aF62686719
aF49907205
aF4195860
aF85624345
aF70321692
aF33424930
aF68093483
aF35325493
aF23004737
aF18122306
aF34506307
aF20600417
aF79955530
aF18122319
aF85001808
aF47973973
aF12027480
aF65898074
aF96929372
aF97912430
aF17598073
aF36636286
aF7374468
aF6555282
aF91588244
aF47548058
aF92538523
aF12224175
aF50267825
aF94897842
aF91489971
aF79136436
aF34408117
aF47449784
aF35489473
aF69273288
aF92767948
aF49219282
aF40517923
aF33228503
aF83691224
aF39651036
aF40699613
aF30508769
aF14550755
aF15107825
aF94537458
aF84182777
aF23136014
aF81463060
aF38340375
aF90507040
aF21301025
aF25298722
aF50071334
aF32114472
aF12125994
aF78087992
aF51709753
aF39159610
aF26511169
aF73804769
aF89183884
aF91745250
aF67405647
aF86738772
aF5900119
aF25560922
aF21596015
aF90194238
aF15566711
aF48859019
aF48465808
aF47843217
aF84543378
aF44304277
aF89360278
aF84019098
aF83777178
aF26216350
aF25102239
aF28215205
aF94242726
aF86181803
aF37423022
aF13600692
aF95782847
aF25987020
aF32868316
aF45254621
aF71796702
aF86546085
aF48269282
aF47679459
aF55412713
aF84583380
aF8292351
aF63375362
aF30443524
aF32966680
aF61835295
aF41617440
aF62720035
aF91313842
aF50956334
aF2558005
aF26675257
aF33392704
aF82511937
aF19073091
aF24774729
aF3999819
aF80939087
aF54429788
aF21694557
aF23595108
aF85231719
aF60590190
aF19240638
aF65472643
aF91261066
aF98839575
aF42567823
aF89850222
aF61311132
aF87165090
aF75663529
aF57411756
aF34146477
aF68618416
aF12028082
aF34015412
aF41552053
aF11929797
aF69961926
aF26675400
aF72386761
aF47841655
aF89458895
aF3410129
aF52463838
aF58231008
aF66339197
aF62163192
aF59541756
aF83509633
aF40326871
aF5933329
aF60066067
aF71895318
aF42174753
aF73337146
aF14059835
aF3148092
aF99748163
aF18188616
aF66881866
aF70125900
aF28772686
aF50465103
aF38701393
aF40044892
aF5998944
aF78481773
aF31230319
aF41159027
aF79464827
aF62327169
aF71862664
aF53315984
aF29886870
aF40470938
aF28707229
aF55249310
aF46008742
aF62194076
aF84006642
aF73828784
aF66357681
aF5999026
aF34015667
aF22251960
aF2623937
aF6687176
aF15239633
aF68463694
aF90933726
aF18254308
aF45353446
aF45353447
aF68323816
aF50989545
aF78186987
aF4655603
aF99027447
aF62294523
aF87984639
aF22972931
aF23104010
aF87460363
aF55478799
aF62622226
aF38799894
aF62687772
aF95291936
aF10914341
aF99158569
aF74943027
aF44403256
aF83233356
aF65309267
aF89754198
aF59476569
aF98634338
aF54725229
aF88148596
aF83291241
aF35129977
aF13437562
aF97913471
aF25135746
aF28838531
aF32443023
aF10947221
aF69012124
aF95521438
aF20155046
aF27429550
aF93096629
aF40307383
aF49679034
aF8424126
aF87558848
aF96635585
aF51743436
aF38672162
aF66350200
aF8194783
aF93817582
aF56068847
aF93457136
aF82610937
aF75434756
aF6327045
aF59804422
aF95390477
aF95410690
aF83659550
aF38341408
aF6359842
aF6818595
aF32672571
aF21891900
aF28642116
aF75631430
aF58657609
aF12815178
aF82855471
aF40864596
aF93129574
aF95456109
aF31099758
aF76483442
aF4688757
aF24611703
aF9046907
aF24710012
aF47123325
aF40004757
aF16780163
aF55610249
aF78908310
aF58821530
aF94399642
aF39357342
aF37129126
aF93512314
aF78121909
aF79268796
aF75271104
aF41290692
aF41126853
aF73960393
aF9046986
aF30575570
aF52005849
aF78908379
aF69766108
aF25496548
aF89459685
aF68094955
aF35949549
aF59935727
aF15895541
aF13962237
aF57478143
aF53152768
aF48598020
aF15833491
aF29821976
aF35589145
aF32771110
aF75336744
aF11963439
aF40143925
aF29895861
aF85137249
aF25726033
aF73305176
aF97750106
aF61639771
aF17763422
aF64588895
aF54037601
aF70257768
aF22809710
aF10521712
aF53972081
aF87772572
aF62819448
aF57511036
aF23563392
aF60099714
aF14093443
aF95980680
aF28511377
aF6646979
aF99126421
aF98929817
aF88476839
aF34081965
aF56691888
aF67079346
aF51973312
aF4558022
aF429256
aF87362767
aF54299856
aF31558865
aF6065362
aF23923926
aF93457635
aF3247333
aF86183150
aF23805295
aF68979963
aF44985557
aF18418948
aF93523206
aF34868489
aF5770506
aF33164555
aF99683600
aF30674194
aF1772819
aF63343895
aF52399388
aF51121451
aF88149292
aF49220910
aF29330735
aF35032375
aF69012800
aF8228164
aF26643782
aF93261137
aF22842717
aF28413288
aF70421865
aF98766197
aF36015483
aF49220990
aF96112012
aF77696404
aF42274198
aF76049648
aF20221350
aF3050923
aF16553885
aF13962673
aF81104308
aF95732596
aF72912315
aF35360188
aF18459893
aF28708292
aF90181062
aF76647879
aF81333704
aF18910671
aF33721816
aF65474011
aF87428572
aF27037150
aF84577777
aF25464308
aF10620411
aF88870396
aF74780160
aF73174529
aF97062402
aF62688771
aF74092037
aF10817033
aF77672214
aF37948947
aF7245333
aF71929368
aF41881121
aF71274019
aF7212596
aF48172611
aF73010762
aF37817936
aF26414674
aF25366100
aF75435613
aF8252688
aF12226146
aF77270632
aF59805294
aF91917937
aF45354616
aF41626900
aF3280514
aF72126087
aF49876616
aF14749321
aF58986126
aF52380269
aF99618458
aF73109148
aF93916829
aF45679217
aF51154600
aF84283053
aF55479982
aF98537139
aF4820662
aF79859388
aF91918015
aF24579777
aF3903175
aF90509003
aF54267599
aF21630673
aF68999118
aF67112662
aF48860887
aF12127962
aF22108111
aF99618527
aF48172772
aF90443495
aF87231612
aF80121598
aF78450431
aF68292354
aF94867204
aF19683286
aF34410249
aF64777518
aF62328599
aF24022812
aF39620384
aF40374049
aF9703206
aF83431209
aF69504816
aF31199030
aF24022844
aF63606596
aF85954378
aF3379025
aF8687443
aF12390230
aF44896088
aF87527261
aF83285990
aF39260008
aF93982570
aF85528427
aF17633132
aF54398830
aF69799791
aF9768816
aF93851514
aF54398847
aF12390274
aF61247363
aF16224141
aF3706769
aF20975517
aF5410722
aF61173063
aF69832620
aF19795891
aF54431671
aF48730040
aF24645564
aF31625154
aF593871
aF21794784
aF51187688
aF94572538
aF98340859
aF823294
aF74387458
aF88084483
aF43520020
aF44404772
aF38309931
aF78352437
aF67997750
aF65245239
aF12095545
aF3412033
aF41750597
aF22810697
aF96931921
aF69734492
aF94081119
aF1183840
aF8458345
aF87134314
aF75239537
aF92278907
aF34705538
aF37621892
aF84678678
aF84873351
aF60231816
aF42504329
aF5509260
aF55447709
aF10621098
aF54005931
aF16814256
aF67080371
aF61149366
aF45322424
aF15002996
aF84083717
aF52695232
aF53383362
aF38342857
aF57151690
aF97620171
aF89329881
aF85004506
aF64032988
aF76976357
aF95785190
aF49811688
aF41816297
aF33820906
aF46141677
aF73666802
aF32936179
aF54104310
aF46960892
aF86413567
aF34640137
aF9539860
aF27187247
aF82448668
aF75272477
aF86792240
aF93491492
aF58265898
aF13308205
aF7901494
aF74158392
aF50696511
aF69439808
aF70652231
aF43396492
aF39162200
aF65376601
aF90214749
aF24777059
aF66818404
aF47907558
aF24940907
aF25465199
aF51417456
aF75239804
aF44896642
aF74977673
aF42996108
aF51417485
aF11833744
aF13341082
aF42013094
aF27431336
aF43028906
aF66458029
aF72061358
aF790959
aF98883656
aF98210226
aF33886650
aF44765635
aF97587654
aF61018577
aF34083283
aF62788052
aF5575126
aF58626522
aF62034399
aF35426801
aF18682360
aF29790714
aF11538941
aF5476873
aF47550987
aF41095694
aF36803103
aF9277987
aF27890213
aF53154342
aF39424556
aF89166382
aF35230266
aF31035967
aF55841344
aF47583812
aF79139398
aF79958600
aF28906057
aF8788066
aF38900303
aF85365328
aF32477777
aF53318228
aF63574618
aF22155868
aF627297
aF21598828
aF2036334
aF83366513
aF70455925
aF40866423
aF6591096
aF31527547
aF93459069
aF23499393
aF33526404
aF74158732
aF44536463
aF52564633
aF26940064
aF99848877
aF81367727
aF21500603
aF70947516
aF98505422
aF64721618
aF16356051
aF79991509
aF9409239
aF53121756
aF25858781
aF75305698
aF49844965
aF54760173
aF83956463
aF50565877
aF54807625
aF37950199
aF15602430
aF33788672
aF35427073
aF463621
aF17711916
aF84875394
aF78025487
aF82842394
aF96211740
aF18847877
aF97725915
aF63148843
aF85824304
aF99586868
aF52597561
aF63607613
aF86983477
aF62690119
aF61412169
aF23794508
aF41030480
aF27628370
aF26612566
aF56562520
aF66884443
aF30970718
aF33002338
aF47345127
aF26841973
aF10589046
aF76288888
aF55579516
aF7312256
aF56071045
aF43193226
aF89396107
aF26645388
aF92509070
aF93361041
aF95163282
aF84677527
aF83613850
aF31560608
aF37786533
aF17470392
aF52138939
aF29332413
aF71930821
aF35460045
aF84382671
aF28382160
aF98014162
aF19207130
aF2888668
aF87757795
aF26711020
aF64590838
aF58692605
aF17142792
aF37753865
aF22221840
aF40408098
aF16936454
aF30807080
aF76944438
aF65377338
aF17798204
aF57447485
aF52401214
aF74093634
aF42865732
aF84644933
aF51745868
aF1315942
aF51582058
aF15144048
aF25793653
aF35591288
aF89101433
aF24384643
aF2725004
aF50238607
aF14750868
aF75502743
aF49648800
aF22516899
aF97227949
aF17601720
aF31720308
aF20190423
aF36148449
aF74519778
aF65203750
aF62559470
aF45585648
aF27956475
aF18158846
aF83334401
aF34673923
aF21075206
aF81989875
aF74388744
aF54236426
aF11834638
aF55193134
aF55513
aF32183578
aF41649029
aF60134690
aF16389418
aF59177620
aF29332792
aF31397177
aF28547295
aF65148222
aF93695541
aF96867664
aF86218065
aF42177877
aF36541786
aF3511651
aF22779237
aF28775797
aF63706486
aF20813177
aF24057210
aF28874108
aF47319221
aF71669123
aF41943958
aF24548744
aF56497546
aF73700748
aF34837901
aF69670286
aF59556761
aF16029086
aF68621735
aF13833642
aF80123310
aF96928670
aF11769285
aF83858886
aF82286027
aF60298707
aF26187221
aF32249312
aF46863841
aF36378082
aF7214570
aF88675820
aF17831408
aF5674488
aF40016127
aF5281285
aF63903252
aF77753945
aF89938180
aF84829005
aF36345384
aF46372393
aF84350511
aF39818828
aF61576782
aF54957647
aF14816859
aF75776955
aF61838951
aF66197097
aF54515986
aF51451504
aF88774257
aF44602995
aF36935287
aF58463865
aF22419072
aF92378759
aF92116628
aF77436567
aF76715673
aF8951451
aF42079904
aF62068386
aF93198619
aF18847397
aF45330033
aF53581483
aF20846256
aF10294965
aF94410422
aF87660219
aF72619710
aF81106624
aF890569
aF18749140
aF31954648
aF89659108
aF70653676
aF51713776
aF50566899
aF77829878
aF49616650
aF26384141
aF59119388
aF82515743
aF74225442
aF69523732
aF96376615
aF37361449
aF34740022
aF90707767
aF88020795
aF8886078
aF80484162
aF38803273
aF84645708
aF39327567
aF20355385
aF15013720
aF28120926
aF15046495
aF80320353
aF92510055
aF74684264
aF268141
aF80254830
aF67311478
aF45946751
aF73144198
aF15931273
aF55875467
aF88020877
aF73340818
aF67901333
aF792477
aF79304615
aF30644142
aF36673456
aF25565106
aF91985843
aF91166645
aF22910910
aF78452674
aF27957188
aF65968069
aF27006924
aF44799950
aF27793364
aF38541280
aF39000044
aF83007471
aF33724408
aF80779261
aF57907205
aF1579014
aF58660880
aF30382102
aF41288709
aF11704356
aF67115048
aF14030890
aF58562612
aF27039802
aF48994368
aF15964228
aF59349072
aF40966501
aF46438498
aF73144419
aF69965926
aF50436201
aF23795828
aF45783157
aF71014522
aF21895294
aF48371841
aF71866498
aF42047620
aF58693765
aF73373830
aF83171465
aF46536843
aF12654735
aF71964821
aF15374487
aF87070880
aF87955622
aF42965160
aF90517192
aF44079290
aF71112893
aF4266178
aF55711947
aF42768592
aF46471385
aF27990236
aF58661087
aF72423658
aF8067310
aF46143727
aF49289465
aF44707541
aF64690432
aF66722052
aF69933320
aF35690768
aF87759123
aF63609110
aF64783407
aF536282
aF9509150
aF86055200
aF36378916
aF7117097
aF24151091
aF49420598
aF64198969
aF34085181
aF54794578
aF16095572
aF53025113
aF56301915
aF59906405
aF10459502
aF82221424
aF67246449
aF3348850
aF3709331
aF91713258
aF41556350
aF92182911
aF95361412
aF26155400
aF96606605
aF88611215
aF44964243
aF45685142
aF79370650
aF4266402
aF26548644
aF10623399
aF15440302
aF29759919
aF23992758
aF38525343
aF47684032
aF92084677
aF3905993
aF12261837
aF93952466
aF81697235
aF7641561
aF54073818
aF49912285
aF7641567
aF38863952
aF50993642
aF15309292
aF9017846
aF93253375
aF22671104
aF3578380
aF1808914
aF8362516
aF7281173
aF74717722
aF98933287
aF13081146
aF82221630
aF41327171
aF54172229
aF68590160
aF85138004
aF93493845
aF71834198
aF63281757
aF42030555
aF4201055
aF52435562
aF57612924
aF79501957
aF51485324
aF15702669
aF77077136
aF5151379
aF77634198
aF24582813
aF60398238
aF7510692
aF36258929
aF67033543
aF61610671
aF73702068
aF31955640
aF61381309
aF6724294
aF59546313
aF28646095
aF58825431
aF20257498
aF97862778
aF42932958
aF50928356
aF47618790
aF63532839
aF21732077
aF50873469
aF76716789
aF92314358
aF19962617
aF68492026
aF10754812
aF64181592
aF41327369
aF75307788
aF41130766
aF62298897
aF45652759
aF78606127
aF90741210
aF51872901
aF11574058
aF27630381
aF65984991
aF87753866
aF50076478
aF46635844
aF89594701
aF44440399
aF35527504
aF14523219
aF19897172
aF99785560
aF90250077
aF51813221
aF93471889
aF73964400
aF53189489
aF42638196
aF44440042
aF3185538
aF90381188
aF40016773
aF20454278
aF14719879
aF85990287
aF71998352
aF70720402
aF19962775
aF11475873
aF68918184
aF50568110
aF30809007
aF53255088
aF43162545
aF88710066
aF48896956
aF51911615
aF35199941
aF18488262
aF68721608
aF8592329
aF27466703
aF95951826
aF66460634
aF2563036
aF64068590
aF31464432
aF55155705
aF5479429
aF92642311
aF8985608
aF82598402
aF35232782
aF77241367
aF60922904
aF53336580
aF57941028
aF3889671
aF72817712
aF54271033
aF65772605
aF53058624
aF18226241
aF79797316
aF9083977
aF40213579
aF7871568
aF15899733
aF79043672
aF27499613
aF36641886
aF84057183
aF34217061
aF73112678
aF94215272
aF37820948
aF77667456
aF40377481
aF32218254
aF68590750
aF68000930
aF1055911
aF83172520
aF71703726
aF77044917
aF44801208
aF86187204
aF55024837
aF75832541
aF97721579
aF4201716
aF12623102
aF94117123
aF86744324
aF66395401
aF42900746
aF66854155
aF77045005
aF34970900
aF47586586
aF66428187
aF82418977
aF40289499
aF11181365
aF31792439
aF42343751
aF54173002
aF38182227
aF60071252
aF44146009
aF57023836
aF14130529
aF76029282
aF51846504
aF67902826
aF51670930
aF74784115
aF90577470
aF11410812
aF85892493
aF65478031
aF62430617
aF18390431
aF31825313
aF45030820
aF13573588
aF77176280
aF83631587
aF39525862
aF96345579
aF69115372
aF73571825
aF93396469
aF98967032
aF53976571
aF76815870
aF51748354
aF42671630
aF597522
aF40181271
aF82451995
aF37658140
aF71736868
aF23043623
aF47652394
aF67317682
aF57384500
aF10755640
aF62332473
aF81599071
aF35823165
aF94477886
aF4660800
aF50502122
aF36970051
aF69738054
aF7020103
aF39624267
aF10755660
aF74456667
aF80125532
aF29990493
aF95002207
aF28771600
aF55451251
aF29040245
aF82353782
aF99884675
aF33365637
aF36970122
aF99163793
aF41918098
aF99921859
aF68787868
aF1351329
aF39296678
aF35987111
aF42737320
aF89333419
aF38117039
aF21213130
aF22486721
aF21012162
aF20258500
aF56029132
aF47816397
aF4071121
aF90775253
aF70196956
aF84352734
aF33693408
aF17178339
aF64888554
aF25730798
aF52567796
aF50241272
aF39333844
aF13442811
aF79339260
aF63676157
aF302847
aF35921664
aF22585090
aF171783
aF71802632
aF15769362
aF38674202
aF78683933
aF63840031
aF8777692
aF37396269
aF23764786
aF84352821
aF88232317
aF56500024
aF95814965
aF36314946
aF59842373
aF77078348
aF70328142
aF47488851
aF88055639
aF36773720
aF94216025
aF27107167
aF60530530
aF27926374
aF62932284
aF2236275
aF32579448
aF82714492
aF57974656
aF58171265
aF87433091
aF21077897
aF25370506
aF2334603
aF8429459
aF35856280
aF72720289
aF50143141
aF57417639
aF39657385
aF51829405
aF24354744
aF79343604
aF56434619
aF75669459
aF24354775
aF8395428
aF81895389
aF38182879
aF29466592
aF93521232
aF63938532
aF87859176
aF95559657
aF1155050
aF57417707
aF27828208
aF26484730
aF10297344
aF37101576
aF43786255
aF47390737
aF44081175
aF20717595
aF17702942
aF925731
aF84353063
aF36905010
aF81928245
aF31957050
aF68821052
aF49619008
aF89169986
aF98443346
aF15671384
aF40902746
aF53223521
aF17259195
aF54141038
aF78585968
aF3448958
aF36348034
aF64561293
aF18423952
aF24420497
aF16392339
aF49651867
aF50110623
aF16359589
aF7479468
aF7086253
aF38969520
aF7643328
aF65052866
aF31236295
aF76390611
aF49717463
aF22159578
aF67477725
aF36610273
aF83435746
aF5677293
aF31032702
aF79470841
aF20619519
aF43557126
aF57450759
aF30810378
aF34730029
aF20390164
aF31760671
aF97218608
aF34742563
aF86679848
aF12001580
aF54173999
aF31498544
aF60465459
aF88711486
aF51585344
aF48603463
aF81273161
aF68690253
aF51781969
aF27533653
aF49553753
aF23339358
aF33595748
aF90513765
aF24944999
aF75637099
aF17244524
aF83665265
aF44802421
aF77799810
aF92742019
aF27926917
aF16687497
aF33923467
aF91495149
aF33595797
aF84189590
aF17637790
aF56369568
aF3292226
aF10985894
aF57221554
aF92545460
aF78815674
aF8692155
aF61435979
aF41886150
aF10920404
aF57254357
aF85729754
aF68919777
aF78127604
aF8593910
aF36119032
aF22061578
aF23044620
aF14426637
aF64237658
aF45720097
aF90087974
aF87826991
aF34480689
aF77439541
aF89104951
aF5677632
aF99463265
aF17736265
aF31334990
aF52535894
aF6922849
aF38871669
aF43262591
aF27603052
aF83141258
aF64430731
aF32088721
aF81994408
aF48276141
aF22520494
aF17674355
aF59482804
aF17900213
aF36119225
aF26550981
aF4432584
aF20816587
aF29467343
aF81175248
aF18227922
aF58663636
aF58598107
aF13148894
aF45818591
aF76587745
aF7054055
aF36872937
aF78291693
aF29434606
aF22356721
aF19636979
aF39527160
aF28386041
aF88908540
aF95396606
aF66331398
aF99754761
aF28777261
aF34874133
aF95003422
aF2532129
aF20259619
aF41460517
aF52798247
aF36447017
aF88253230
aF5677872
aF69215026
aF19112756
aF24322874
aF60530741
aF75506500
aF4825926
aF67216203
aF81994575
aF29041490
aF49554262
aF28418906
aF14984033
aF4922171
aF63841130
aF36152174
aF5219187
aF84190074
aF28353407
aF402307
aF25305999
aF25011089
aF4447043
aF53257113
aF94380957
aF28976030
aF39265184
aF7964144
aF10068907
aF67814898
aF94118831
aF7250865
aF67989662
aF74032069
aF7971785
aF55518158
aF271315
aF62137300
aF23339989
aF5244409
aF38970336
aF6824938
aF53519341
aF13935599
aF66298865
aF89793522
aF44653396
aF86516734
aF2073603
aF11346951
aF82093066
aF9741324
aF99787789
aF1877019
aF60630046
aF3712033
aF71967778
aF40360795
aF89105444
aF10396710
aF64037927
aF468013
aF52732982
aF79078460
aF47785023
aF66528321
aF75605059
aF12690501
aF44082248
aF40084556
aF78324829
aF48833632
aF10298477
aF46539887
aF50406512
aF60040305
aF3220596
aF57091189
aF67675254
aF71476345
aF50373759
aF90813976
aF79242377
aF32416914
aF27698325
aF54240412
aF59778205
aF12035236
aF84157606
aF438471
aF27960495
aF64988336
aF40903869
aF25011390
aF70198467
aF40153292
aF69346509
aF28091598
aF50930896
aF5842143
aF9220304
aF73966828
aF37790957
aF70886642
aF92087542
aF88810743
aF58454228
aF46638330
aF52339963
aF58500350
aF77702406
aF9282823
aF75572491
aF26354960
aF85271826
aF20915475
aF11150615
aF27960603
aF72358789
aF71050529
aF49718565
aF56304945
aF92284214
aF40281401
aF48735551
aF96740672
aF15934794
aF75572555
aF38479186
aF63546712
aF766180
aF85042523
aF75900252
aF31171935
aF50996576
aF29893993
aF1844588
aF46277999
aF77243764
aF51258746
aF34579843
aF77833608
aF74458510
aF26977682
aF29861270
aF80487831
aF58467736
aF1254810
aF33105307
aF16393628
aF64202142
aF88925932
aF33170868
aF77505980
aF70744831
aF43768736
aF11644862
aF23176650
aF58533329
aF73016786
aF29402585
aF87598562
aF29023142
aF60761575
aF71771630
aF95449341
aF47586216
aF83928568
aF78161401
aF17802746
aF68298236
aF14722565
aF81987160
aF32613906
aF59352595
aF89794069
aF47457814
aF28285871
aF85930245
aF77571616
aF73183510
aF68789799
aF16131625
aF97592891
aF45360700
aF79144509
aF15509059
aF40150603
aF7087692
aF35989078
aF64562783
aF58041953
aF36972131
aF25405028
aF19867240
aF53585513
aF61875818
aF68658797
aF84125294
aF84944506
aF2765078
aF15771279
aF80717456
aF84944540
aF90282950
aF92532524
aF10659501
aF53618355
aF94742204
aF86320829
aF65971904
aF36054721
aF65185475
aF9807557
aF17966799
aF92841681
aF20522710
aF21472995
aF63514340
aF37725927
aF53028584
aF59746029
aF60270324
aF61515514
aF2762496
aF37136132
aF95640534
aF84518666
aF48703250
aF64235286
aF62269216
aF33072936
aF59975471
aF11577140
aF75278134
aF30287677
aF48736062
aF6648117
aF13248328
aF27862871
aF16099161
aF2664285
aF45131618
aF82749286
aF91367275
aF6072175
aF60827509
aF86615927
aF35497850
aF64759695
aF71247771
aF26978224
aF98052021
aF74491831
aF77113275
aF99166141
aF81766336
aF15476679
aF34613194
aF98346962
aF87435225
aF26847204
aF36415481
aF6531069
aF62859278
aF81700879
aF38643732
aF28780567
aF64268312
aF80750618
aF87131825
aF86059057
aF86845491
aF61515831
aF68560953
aF8562752
aF88221766
aF79210569
aF22489166
aF14919775
aF64039009
aF46966882
aF75835492
aF16296043
aF25307246
aF72755314
aF1615998
aF98478213
aF83994759
aF59087895
aF62466188
aF78391439
aF50505885
aF1058990
aF72517320
aF26192057
aF75835583
aF85895362
aF34777286
aF71313608
aF9152713
aF46606543
aF78325983
aF29075682
aF67905770
aF94546158
aF83372280
aF85862649
aF10529021
aF57755350
aF56273159
aF90122506
aF40151308
aF1419536
aF39495957
aF96807194
aF73247006
aF50112800
aF74128432
aF77179175
aF45754664
aF60795184
aF24258867
aF47032631
aF7547194
aF47819068
aF45263172
aF98740557
aF55617876
aF10758487
aF11118951
aF32057728
aF98576773
aF96184714
aF74656142
aF97429903
aF78522774
aF40688708
aF25536926
aF39004576
aF1812898
aF54208938
aF80980395
aF64793004
aF32287157
aF51620279
aF80882106
aF92580288
aF96410699
aF87927236
aF96446918
aF92088776
aF94284238
aF78752208
aF16394705
aF23570902
aF81701335
aF54438361
aF25864671
aF32877024
aF82717153
aF93497828
aF99723752
aF68364779
aF16656877
aF35170800
aF37235190
aF96414200
aF59058684
aF96348671
aF72886788
aF27341230
aF61712923
aF90384934
aF22915626
aF63154733
aF18131503
aF84322870
aF2632248
aF7612992
aF42936898
aF80521815
aF2533991
aF96021097
aF41069175
aF24291962
aF59845245
aF89107071
aF9624684
aF73902734
aF87534224
aF19835537
aF83503762
aF7678618
aF87337632
aF55061155
aF84126374
aF45079665
aF54373032
aF53815997
aF34712254
aF99101377
aF79604421
aF43452193
aF9022156
aF39561937
aF47065810
aF51653336
aF62466777
aF63417052
aF77310691
aF32156391
aF25471721
aF30386929
aF35072761
aF22923050
aF73083661
aF5647118
aF75934485
aF30845722
aF96021278
aF86584104
aF39856943
aF928560
aF34646839
aF35236664
aF1682236
aF26422084
aF59124550
aF12987212
aF39037775
aF59091798
aF2763608
aF99233344
aF40446821
aF87268526
aF10398582
aF87010167
aF46934905
aF94546810
aF90712955
aF27044732
aF45296515
aF21408644
aF19704709
aF60435342
aF1485715
aF58502038
aF80882585
aF43035547
aF99003294
aF86105243
aF73313197
aF46836657
aF12102582
aF64793529
aF39431100
aF78490570
aF71838672
aF48442326
aF37333975
aF93858777
aF2894810
aF27831265
aF27765740
aF33401846
aF37515775
aF49458183
aF4205586
aF22453422
aF72854551
aF13741080
aF6204460
aF73870388
aF82555401
aF50113592
aF3812413
aF76688446
aF89267381
aF26029128
aF61058121
aF99888202
aF61058124
aF26356814
aF74918997
aF91532380
aF15051869
aF75050079
aF32418915
aF57945196
aF32550002
aF28716148
aF81931383
aF88976504
aF71216272
aF46345363
aF37596308
aF52800666
aF32517278
aF35953861
aF34811044
aF21540011
aF53947565
aF26094769
aF36089013
aF17345720
aF51752121
aF39103676
aF66301119
aF4238538
aF40479949
aF6380749
aF61353172
aF33107163
aF57945309
aF40152289
aF67120355
aF37563629
aF68300014
aF7449845
aF94481661
aF19625449
aF68758788
aF46476556
aF55848205
aF99233040
aF74689812
aF87043350
aF25701665
aF76033321
aF27766067
aF19737910
aF27274551
aF19934526
aF6171967
aF11480389
aF37203270
aF3714376
aF54472013
aF82357584
aF79506773
aF31939812
aF20917594
aF66858333
aF70659422
aF69086573
aF70036851
aF55946612
aF93203836
aF46804352
aF47411777
aF9252236
aF63155598
aF28716432
aF39857554
aF97606338
aF69513796
aF25800090
aF46280096
aF65908133
aF59715001
aF22195642
aF93236668
aF93498825
aF44510667
aF21736908
aF29863376
aF3190226
aF68300244
aF19115478
aF45919706
aF59878875
aF10628572
aF36318687
aF68022864
aF98020834
aF69086695
aF1486320
aF55062019
aF13839879
aF70692364
aF75345422
aF97529361
aF95694357
aF71118359
aF72166938
aF58535457
aF12856866
aF77245998
aF44052015
aF94285360
aF18853429
aF65908288
aF2108994
aF38575371
aF7777868
aF45788749
aF45428314
aF47459931
aF40873564
aF12791399
aF39562857
aF18951792
aF35794545
aF83844371
aF63319680
aF58699394
aF83701384
aF33173129
aF25276045
aF75214481
aF87895698
aF40414867
aF3223190
aF30322327
aF88813208
aF84586137
aF72265371
aF91631260
aF73019037
aF60632741
aF25439910
aF19967665
aF47820477
aF98152132
aF83734216
aF92473292
aF3748471
aF34614995
aF39634894
aF72920794
aF86329295
aF86781664
aF82685666
aF65711848
aF12955369
aF75050747
aF13414140
aF94285570
aF18231054
aF76263190
aF76590881
aF22358748
aF69283624
aF85569326
aF18394932
aF16199481
aF3157818
aF17734965
aF18034500
aF57683786
aF62435149
aF89404046
aF54243159
aF4271964
aF110430
aF93266929
aF70599793
aF48803688
aF45363050
aF15871852
aF241519
aF5156722
aF99135358
aF27242372
aF67776390
aF54374285
aF14888859
aF98840482
aF54407077
aF95301552
aF89894833
aF20098994
aF89698228
aF4042683
aF14036926
aF45920192
aF37072835
aF12857287
aF42020809
aF78524362
aF49596407
aF36745171
aF73445332
aF95989717
aF57225175
aF96591183
aF86716387
aF73936875
aF58831528
aF43495410
aF52834292
aF21082106
aF75509755
aF70004733
aF85777751
aF60076049
aF89108501
aF83767319
aF63778844
aF58175529
aF15314990
aF72265790
aF56537163
aF54669390
aF28815450
aF90604580
aF43004001
aF92538545
aF18460778
aF73904236
aF24653939
aF23867516
aF78557309
aF15151232
aF84942189
aF3289232
aF77924376
aF70791315
aF81146009
aF12955807
aF5910695
aF97824944
aF42381492
aF77836469
aF57454777
aF15675586
aF12234947
aF37925063
aF50376908
aF86323407
aF53555408
aF38514900
aF30519512
aF74658012
aF69120222
aF38580449
aF48902372
aF92864315
aF35008760
aF93369044
aF57061637
aF71840006
aF9941258
aF65614091
aF33304844
aF5812502
aF16199959
aF58175771
aF19673377
aF4272421
aF36385063
aF95269173
aF54899016
aF41628002
aF75247976
aF7254377
aF47198580
aF13382017
aF98221447
aF90943878
aF84947340
aF89600399
aF66433433
aF93401499
aF49951143
aF47630407
aF80982446
aF10924465
aF65876402
aF92484048
aF36680151
aF9220574
aF99955167
aF88256995
aF23572967
aF39334378
aF98611695
aF23540208
aF20918777
aF16036356
aF21803526
aF41366023
aF55357961
aF15315471
aF39465492
aF83150937
aF75182617
aF96973339
aF94843420
aF84794800
aF16855588
aF81408557
aF84488756
aF45888054
aF74625597
aF89207360
aF10269252
aF90976860
aF75887376
aF47526499
aF56013414
aF92516969
aF87929454
aF19051126
aF38744695
aF32518778
aF75658005
aF94679830
aF49394310
aF76531820
aF48509580
aF44741262
aF70857361
aF37958295
aF73642648
aF50508442
aF10400411
aF96744099
aF62599848
aF74461865
aF52736682
aF72135339
aF75084468
aF55095995
aF34681532
aF93926087
aF73413321
aF81807479
aF42447568
aF79803092
aF99431126
aF94461746
aF61813468
aF11416296
aF35795694
aF43594480
aF21410551
aF48607994
aF8958720
aF15020806
aF59945739
aF55554830
aF12006159
aF3945232
aF22295315
aF29433669
aF6370071
aF51557144
aF45822750
aF64729890
aF27702055
aF31339308
aF33633076
aF89797435
aF99267389
aF83735359
aF75674441
aF28029772
aF58241870
aF9384783
aF76460880
aF31732565
aF50082651
aF37991271
aF62534504
aF91108205
aF14889838
aF16331633
aF15151987
aF16561018
aF51229563
aF66237308
aF44118911
aF59880328
aF61027211
aF63746963
aF8106916
aF5616550
aF71807915
aF32617388
aF73970613
aF19968950
aF51459004
aF86586305
aF81310659
aF80884678
aF47461328
aF81474523
aF39891932
aF66991072
aF53818192
aF2372586
aF35173355
aF55025150
aF10728450
aF28095491
aF47887364
aF50934794
aF38614029
aF42578959
aF75314198
aF20100119
aF7091226
aF38155294
aF38515752
aF7271260
aF45691949
aF24523824
aF37008444
aF5813311
aF93467713
aF25048130
aF24075787
aF71054405
aF93860941
aF78623830
aF275543
aF23311449
aF91501658
aF963680
aF30717029
aF78394476
aF57914478
aF25965688
aF71185535
aF86324358
aF44610701
aF94680207
aF45429904
aF67384467
aF3978094
aF83822789
aF29471904
aF64763042
aF93380123
aF18265258
aF78165163
aF42185901
aF81933489
aF25310391
aF43332799
aF64337097
aF34550989
aF57122340
aF64861405
aF91239649
aF8926437
aF90191080
aF29013230
aF15512817
aF97039611
aF48739582
aF35927295
aF71349514
aF60639447
aF29504781
aF2596397
aF82392336
aF68859156
aF49362200
aF79607066
aF47985949
aF71677215
aF42546466
aF63517993
aF56079662
aF45954351
aF13415729
aF35894584
aF74298690
aF15250764
aF48613603
aF20389435
aF10499429
aF2241897
aF54801770
aF17282412
aF15381872
aF37369203
aF65756735
aF47396221
aF83500608
aF38942091
aF52966796
aF17511824
aF69580178
aF20405827
aF30946711
aF62043546
aF67351963
aF52508061
aF13739
aF58766776
aF8107471
aF63092180
aF96384473
aF71710171
aF1652192
aF58734050
aF34616806
aF15480299
aF99530222
aF39269873
aF94226686
aF90387958
aF97629696
aF14726664
aF9549323
aF58373652
aF78525976
aF94385690
aF38942239
aF47068711
aF78722603
aF38778416
aF7779894
aF41825850
aF74266176
aF61486659
aF75150262
aF97793608
aF18527821
aF8140368
aF39597656
aF36976218
aF63321696
aF56440419
aF44545638
aF96881903
aF29177456
aF177779
aF65910396
aF21870214
aF243335
aF16463502
aF95368854
aF58472087
aF1324697
aF35462771
aF55686836
aF23639733
aF99890878
aF89831115
aF17872592
aF68302546
aF31766231
aF25409248
aF88486864
aF32519906
aF10827497
aF7714543
aF29112056
aF6174458
aF8599293
aF25212674
aF12891913
aF69449494
aF10860315
aF77739812
aF56014631
aF44349230
aF42809137
aF72759092
aF1226554
aF87013189
aF65976142
aF63059792
aF36091729
aF53786450
aF30259027
aF70956886
aF79705962
aF9877360
aF57522033
aF1488756
aF59651959
aF91928444
aF35862397
aF90715115
aF79837061
aF83642689
aF69056398
aF62699409
aF80459671
aF8730520
aF24295331
aF44578726
aF32978856
aF87072412
aF11220908
aF53229499
aF65714109
aF22945446
aF19919056
aF20854776
aF65320954
aF58243085
aF68368399
aF7321620
aF55982103
aF65057796
aF95402010
aF72726568
aF63813675
aF73316405
aF6076472
aF38484025
aF73611325
aF88225858
aF48937027
aF4077636
aF12630085
aF12433481
aF71284813
aF6043727
aF13613140
aF50313303
aF70957147
aF70496212
aF28325994
aF37828716
aF32389244
aF83966080
aF24754313
aF13383818
aF83992258
aF25213072
aF34715793
aF22689939
aF68630678
aF79378584
aF21444766
aF17184934
aF43825325
aF5748910
aF69318832
aF79870130
aF21641400
aF47265977
aF13088957
aF10139849
aF34960418
aF46593059
aF19085527
aF66631899
aF21403001
aF9877729
aF19209937
aF33044712
aF25540854
aF66861304
aF11778308
aF79149320
aF59160853
aF10533142
aF15251750
aF26491175
aF55261481
aF20953386
aF6895918
aF59324719
aF99006770
aF50280755
aF72235316
aF12073274
aF47921468
aF23869769
aF49461578
aF702797
aF40974680
aF90448625
aF11581793
aF71842153
aF78231914
aF98023793
aF2832760
aF86849919
aF79214976
aF81279370
aF90054382
aF80492950
aF43366808
aF7584155
aF51198364
aF62241191
aF66533804
aF91535794
aF67975603
aF64698804
aF29604277
aF59488704
aF85834177
aF55949766
aF74955209
aF46905802
aF22034891
aF99432908
aF45620984
aF65124819
aF29735383
aF1391064
aF5061082
aF6666724
aF66238956
aF37829102
aF17152497
aF21019122
aF1358323
aF69024244
aF98941430
aF75839998
aF37009921
aF93829637
aF93207054
aF66501135
aF87144978
aF32420953
aF21772826
aF90389023
aF57883168
aF40450611
aF29702713
aF83835459
aF63289943
aF9091673
aF90502245
aF63912546
aF75741797
aF52771440
aF98985636
aF8141428
aF18397820
aF3443137
aF76888720
aF1424020
aF68138094
aF95238821
aF16038567
aF539308
aF60537520
aF89864889
aF36977340
aF5028541
aF8862414
aF61126699
aF22166231
aF83311321
aF43399898
aF97274319
aF2538204
aF41335525
aF95632102
aF76430059
aF10074862
aF42154737
aF35175158
aF29695785
aF85998332
aF67713796
aF46746070
aF60144393
aF3980043
aF83409677
aF91077390
aF21438253
aF1096471
aF96287517
aF29797084
aF8019762
aF57424700
aF77151044
aF48970566
aF3947341
aF95013347
aF69647188
aF54770528
aF59259745
aF57457508
aF45300586
aF96549741
aF14138222
aF83049331
aF16890741
aF342904
aF56625643
aF70335369
aF65420170
aF54016907
aF60242831
aF36256657
aF25869215
aF4602785
aF37501862
aF10894250
aF81017772
aF18758576
aF43760565
aF50150327
aF53430772
aF63224763
aF7790410
aF90651585
aF93109187
aF70335429
aF11025365
aF54049750
aF85867481
aF53033948
aF66960364
aF72301553
aF16572243
aF84818932
aF86195189
aF95108088
aF17742847
aF27606024
aF21904394
aF62012429
aF56864756
aF22690856
aF56638515
aF38878263
aF59751483
aF24460351
aF75938882
aF18201667
aF62372932
aF32289975
aF30325837
aF98221136
aF46447701
aF83298831
aF5520484
aF1981548
aF83954194
aF75086958
aF94485616
aF52608115
aF23575670
aF94649475
aF8797316
aF9256079
aF57326756
aF99138731
aF71777454
aF56933552
aF34651315
aF93336777
aF65846462
aF23674061
aF47070415
aF33537233
aF32390359
aF47987930
aF30489822
aF22940197
aF36322534
aF539894
aF59063544
aF42614014
aF90029311
aF13876497
aF5618964
aF92028195
aF87276837
aF83303938
aF9059637
aF81345847
aF44318012
aF81575230
aF30129471
aF18365764
aF85835085
aF5061974
aF56900955
aF62537053
aF13253982
aF68697454
aF29212015
aF90488183
aF38419836
aF29801857
aF59489670
aF23704234
aF7323017
aF70729102
aF17808796
aF65322403
aF92421540
aF13778355
aF27445833
aF84600205
aF31243708
aF78986690
aF26623442
aF14400984
aF94354911
aF10829294
aF18595312
aF30948858
aF57130491
aF49233405
aF44514834
aF56737302
aF3587616
aF27999780
aF98254381
aF17219118
aF7945775
aF21413428
aF28524088
aF16989757
aF29539910
aF71024201
aF89374282
aF23016717
aF278097
aF51166815
aF97893987
aF51232363
aF48119408
aF69025398
aF8076929
aF7487106
aF59929878
aF49462918
aF41303688
aF8175243
aF59850380
aF29408910
aF79759981
aF64274069
aF42253990
aF3948205
aF86654638
aF52084402
aF44908215
aF79869215
aF19775165
aF86687423
aF60374730
aF24493771
aF92716750
aF89636566
aF43682425
aF62766816
aF53329647
aF87826387
aF89308921
aF79576828
aF2932483
aF42548996
aF73318151
aF48774931
aF56934169
aF9813802
aF97664812
aF23609134
aF99598129
aF13844277
aF47103804
aF75317054
aF45694787
aF19428662
aF24985424
aF95567697
aF57950041
aF95731548
aF45367144
aF14106475
aF11222893
aF79216494
aF17940338
aF38780795
aF94617469
aF29048709
aF79675270
aF91013011
aF25542553
aF38494192
aF41224860
aF30425004
aF61128622
aF55820214
aF81805239
aF17809342
aF82264005
aF54542279
aF58343370
aF61882323
aF36028378
aF41566178
aF58965991
aF88817651
aF94257144
aF37306362
aF46383107
aF12599306
aF15941650
aF64569364
aF56541207
aF68665381
aF48513062
aF92028967
aF92651563
aF8699948
aF47202350
aF89702451
aF44089397
aF78004283
aF92717117
aF65617983
aF24789056
aF8044610
aF62472261
aF87179350
aF44908640
aF3784804
aF88580113
aF53133424
aF97684158
aF45564023
aF40681608
aF59588749
aF71155860
aF7553180
aF84164767
aF67158182
aF75350194
aF2506934
aF80855224
aF85190532
aF94650556
aF18268357
aF80330954
aF93962448
aF88686804
aF41697501
aF83946645
aF44220641
aF58409188
aF4112613
aF50479334
aF49103079
aF87933162
aF2900210
aF60965109
aF90642911
aF10633466
aF91414570
aF99827967
aF9027844
aF311557
aF61292818
aF60408083
aF59326740
aF37699866
aF71614752
aF24887587
aF48120100
aF6373673
aF10141999
aF79151412
aF94486843
aF82846789
aF27771199
aF44515649
aF48447812
aF6013258
aF60932429
aF54824388
aF82301
aF52912192
aF64897419
aF7291278
aF18301328
aF31211921
aF55820692
aF54706586
aF19251623
aF37470634
aF58999213
aF97301917
aF5685681
aF29868466
aF99893686
aF4638954
aF80298434
aF57164229
aF26689997
aF934355
aF39338456
aF58114523
aF95240671
aF15811040
aF25182692
aF96813543
aF93995496
aF50610665
aF15417842
aF69558355
aF3457525
aF1819132
aF72434179
aF77677066
aF90391059
aF22626855
aF77513263
aF45924915
aF16925238
aF67289655
aF51397177
aF26886714
aF70435403
aF82625128
aF24265321
aF14140010
aF41599597
aF56516713
aF68207231
aF25248389
aF99402374
aF49365644
aF19513999
aF43664026
aF71320221
aF180902
aF76792489
aF19874480
aF73089714
aF55198400
aF83313347
aF47497927
aF78889679
aF47596242
aF76563167
aF67388131
aF62472932
aF8078053
aF18301676
aF91278120
aF30482558
aF98419447
aF55883220
aF21676794
aF73515778
aF75580164
aF64602887
aF42681100
aF80495388
aF81117985
aF11518755
aF63882020
aF31441701
aF21775143
aF30425900
aF21807919
aF63685427
aF4408116
aF84493109
aF58114873
aF97469242
aF44974908
aF12141376
aF89634272
aF54772549
aF344905
aF29475659
aF115552
aF44811113
aF31834993
aF53134196
aF88195957
aF19710839
aF36782971
aF45761418
aF2704273
aF70075283
aF64963477
aF62899096
aF22725529
aF79634587
aF88523697
aF771003
aF43402172
aF48448458
aF55493585
aF97207254
aF22954975
aF26428391
aF64537578
aF84263929
aF36271615
aF82756604
aF26461191
aF16696335
aF50250768
aF83575826
aF74925085
aF35898407
aF74433576
aF86164534
aF6833210
aF96717475
aF7128126
aF76497984
aF80200769
aF75220043
aF17450060
aF95044693
aF55559255
aF46548058
aF38519905
aF66503780
aF42943595
aF99075180
aF44549231
aF54674545
aF29181050
aF31704189
aF37864583
aF25379976
aF89932942
aF14435473
aF11322515
aF57558166
aF902295
aF81773729
aF73745570
aF64610502
aF87245991
aF87400647
aF73319597
aF99075250
aF99599540
aF49759413
aF43631798
aF34522295
aF94880954
aF19481793
aF1164496
aF41436369
aF70173908
aF28820699
aF6491003
aF88163559
aF17089777
aF96597545
aF5293314
aF58246406
aF68928779
aF49890574
aF85986179
aF11093280
aF59262245
aF11355432
aF87967019
aF78455005
aF69944636
aF27477309
aF7423310
aF35898708
aF57394519
aF92528868
aF72631646
aF76137828
aF98846053
aF43435376
aF50316661
aF80528764
aF44516738
aF23938441
aF10175885
aF9389457
aF45270420
aF43173280
aF79644067
aF2770341
aF18531775
aF99272134
aF13716386
aF96945614
aF75548125
aF88262112
aF82789857
aF1590755
aF21579247
aF77579762
aF74827261
aF96814605
aF66438680
aF61687322
aF28427812
aF64898600
aF41403949
aF78890542
aF44713519
aF33998384
aF28067380
aF38782524
aF47302207
aF49628736
aF82167361
aF18138707
aF87410261
aF14927446
aF74794586
aF93505122
aF8249617
aF1656424
aF57772988
aF76695150
aF95045244
aF1242730
aF80529023
aF71157384
aF22202000
aF1689233
aF63325850
aF1787550
aF22776773
aF14927527
aF97076919
aF31684212
aF31475387
aF15222462
aF12306118
aF66995922
aF9717459
aF99632853
aF37078742
aF66549370
aF24495840
aF89278184
aF30590704
aF52053749
aF46384888
aF81446655
aF97404674
aF25118479
aF67847965
aF18728738
aF24594213
aF345898
aF80856891
aF48973628
aF98551616
aF64177987
aF34817865
aF94357323
aF26363735
aF84315108
aF25053023
aF23283552
aF2344802
aF70633315
aF7063401
aF15091565
aF15812465
aF17876850
aF77547380
aF96946040
aF57886599
aF23873422
aF14370703
aF61758572
aF81905555
aF83249048
aF92653467
aF14337949
aF30754725
aF51333041
aF88885176
aF2607043
aF61753286
aF7620552
aF66930638
aF42312013
aF38291413
aF19810262
aF50808797
aF39274466
aF98007007
aF66701295
aF24692727
aF81217536
aF6342663
aF43108361
aF41109527
aF37931033
aF33277982
aF32950311
aF38160435
aF29696350
aF84592697
aF84920380
aF86263870
aF32065599
aF32720967
aF46516301
aF70502479
aF30034001
aF14996017
aF98846806
aF50438500
aF69027947
aF2639980
aF77908083
aF85674102
aF7948407
aF40421508
aF60999819
aF88950932
aF9652376
aF79317148
aF32458914
aF9619620
aF97716773
aF10602677
aF76859575
aF95674740
aF42551486
aF56314047
aF15616198
aF7620820
aF54347990
aF14207191
aF62802137
aF82299098
aF47302875
aF8407261
aF66734304
aF60454608
aF20072675
aF13650148
aF99666149
aF99185436
aF23644393
aF29542634
aF34916599
aF19815544
aF73746683
aF83740926
aF24496392
aF64440588
aF7325968
aF40651029
aF59164954
aF94740134
aF93178168
aF17680700
aF32148533
aF67684673
aF48122187
aF83151184
aF2979555
aF73627364
aF58640731
aF12863836
aF30165341
aF60115294
aF94205669
aF68241761
aF74434914
aF3983716
aF47204716
aF24562035
aF53889404
aF7391622
aF82758025
aF8276365
aF47401360
aF66701723
aF21744030
aF44845476
aF82594219
aF2148783
aF28789169
aF51891273
aF52283836
aF86657471
aF66435112
aF21744069
aF72141256
aF64211407
aF62376406
aF81938903
aF83151320
aF39733723
aF46287331
aF31607271
aF4082153
aF14207472
aF20826612
aF75778558
aF20728319
aF60017154
aF953432
aF99863067
aF38455836
aF91081245
aF67717670
aF9554481
aF78170675
aF85888095
aF96586306
aF21449289
aF94136789
aF1559120
aF41667155
aF4115028
aF91507285
aF52218455
aF93014626
aF7096933
aF71420522
aF95406703
aF510579
aF50842235
aF54610557
aF73878153
aF30329482
aF70699661
aF9554580
aF92540014
aF88820377
aF48024219
aF97569437
aF30853791
aF98650785
aF70175394
aF85019299
aF49695396
aF70885830
aF12700326
aF92293812
aF78629561
aF86237011
aF92883648
aF65850054
aF182983
aF37702348
aF92654286
aF2378453
aF34556631
aF36031195
aF3951329
aF21842658
aF9571452
aF18598636
aF34196218
aF21613308
aF85740289
aF13323015
aF80366347
aF99765011
aF74861332
aF45992731
aF69520168
aF45959977
aF92785453
aF58575662
aF63884090
aF36326204
aF53103421
aF94456642
aF80137027
aF89901892
aF32688974
aF69028687
aF26430290
aF31574878
aF59984735
aF64277345
aF93571940
aF52677778
aF42978167
aF44944260
aF183178
aF70634381
aF89770894
aF2214799
aF34458523
aF68668319
aF44420002
aF79874982
aF9391016
aF15879081
aF77679530
aF38161324
aF36162479
aF150450
aF81087411
aF22498232
aF38816697
aF44616637
aF64179134
aF45992895
aF27872196
aF19745736
aF7424969
aF45697997
aF92223310
aF72567768
aF88591323
aF13323228
aF34524132
aF15649767
aF91540465
aF33442802
aF32754678
aF86232056
aF46418955
aF85838865
aF17910803
aF58117141
aF4475930
aF26758173
aF73550880
aF48483361
aF17615910
aF92621863
aF92752943
aF31870006
aF22039608
aF72469566
aF30592073
aF92785739
aF3591246
aF62999737
aF90038799
aF38325343
aF47205477
aF57003111
aF15191147
aF66276464
aF24733297
aF24333434
aF77155453
aF13421694
aF58936466
aF17484956
aF96155505
aF95276200
aF64900267
aF9096371
aF117945
aF14568648
aF36228303
aF35212496
aF89214187
aF22263677
aF72010993
aF87870707
aF29412597
aF53824758
aF74468602
aF14961918
aF92359935
aF41700611
aF76729629
aF22891814
aF51629358
aF25283887
aF56413492
aF58314041
aF609596
aF57702284
aF85478732
aF95505746
aF12864852
aF98454870
aF38915419
aF48221546
aF52907371
aF26529133
aF92163439
aF17747312
aF18533745
aF32820599
aF41667968
aF57167249
aF48587331
aF84888815
aF42159516
aF51072414
aF26201511
aF87248319
aF21024196
aF44748229
aF42847688
aF65021104
aF4967896
aF37877668
aF18337245
aF39996896
aF1658337
aF43732453
aF27184631
aF82497016
aF67390969
aF3001885
aF5033502
aF16764447
aF1494561
aF36163120
aF77385266
aF88395322
aF16076350
aF51596866
aF20336197
aF22531665
aF26463827
aF42749526
aF10014306
aF19779171
aF79351399
aF37670518
aF96194168
aF61165181
aF5918335
aF12570244
aF6868615
aF88395400
aF3493515
aF7097998
aF61165201
aF52711061
aF92917398
aF30428828
aF72371874
aF57527976
aF33640107
aF65457840
aF35252901
aF12406458
aF26660539
aF86560444
aF52711104
aF68341441
aF90492610
aF43142851
aF75583172
aF609992
aF65359567
aF56315601
aF39997145
aF75583196
aF66019962
aF29183714
aF79351523
aF88231656
aF87346935
aF89280249
aF50482939
aF95506173
aF82366208
aF34918147
aF18042632
aF95375113
aF31903499
aF97636111
aF80432913
aF69947154
aF91622702
aF54939417
aF31182620
aF40335325
aF29544249
aF47632187
aF22499136
aF63655746
aF37211972
aF62541639
aF84299592
aF4771657
aF77123407
aF79613779
aF38948694
aF23547735
aF47030929
aF74010473
aF72437610
aF33312619
aF33083246
aF16928623
aF32984947
aF4444021
aF17911671
aF51761016
aF93966204
aF49303421
aF28996368
aF23908224
aF7655299
aF17649544
aF49336207
aF89968529
aF77516690
aF9621397
aF62541718
aF35147674
aF93222896
aF35999662
aF41897932
aF26595280
aF87052267
aF22302700
aF65130479
aF16175089
aF6934515
aF78696438
aF92393471
aF25546756
aF51531786
aF36229131
aF23285786
aF45764646
aF94031916
aF34197552
aF38228028
aF25481284
aF29872198
aF21188683
aF49664076
aF14110799
aF57757784
aF56709209
aF5296218
aF74109020
aF70996069
aF57856110
aF45404273
aF85217398
aF62607480
aF8409215
aF61296774
aF15749255
aF73224328
aF76828813
aF25415832
aF35737758
aF16699551
aF3362976
aF32264360
aF11522223
aF80335024
aF63983805
aF10178750
aF55300288
aF70144194
aF11608779
aF6770886
aF96587976
aF7688393
aF9392330
aF16994509
aF71880920
aF40685793
aF82792674
aF9064680
aF79712497
aF43274492
aF95637758
aF54350083
aF60346632
aF14209300
aF98980130
aF33149228
aF3002672
aF58511669
aF61296955
aF22565184
aF67719494
aF81219919
aF53039441
aF98456633
aF46354780
aF37540197
aF21221734
aF51007847
aF45240693
aF4706685
aF83415427
aF75632022
aF84464006
aF72208779
aF5919119
aF35115425
aF86331810
aF67871473
aF18272681
aF12243378
aF29020596
aF88586313
aF43536837
aF23974352
aF23318993
aF72962521
aF72634842
aF88068577
aF4542948
aF51400103
aF77877744
aF1888756
aF19517943
aF91295147
aF512516
aF92131847
aF57725450
aF60346902
aF13062690
aF68925531
aF54219303
aF38851116
aF63754797
aF17748527
aF33313329
aF44782131
aF24924724
aF23319116
aF78795343
aF77943377
aF34394709
aF19190360
aF40915545
aF42095195
aF36590174
aF50713187
aF51776956
aF34787960
aF12833406
aF13554303
aF10572416
aF22303365
aF32035464
aF40784531
aF60084887
aF59870660
aF64115370
aF97062343
aF56316588
aF49697454
aF36197040
aF75846323
aF7951033
aF14668479
aF45339329
aF77615831
aF83186392
aF79385305
aF97604321
aF31707897
aF63951614
aF15618815
aF34558729
aF31216395
aF49009429
aF72930074
aF58970917
aF78861094
aF2118446
aF70832943
aF27415345
aF37212978
aF12833588
aF77353786
aF1463113
aF1430353
aF81711954
aF66999129
aF13980521
aF77976432
aF25908084
aF31413109
aF14144379
aF10998654
aF99603330
aF31118230
aF59298712
aF25383834
aF41800605
aF51663777
aF3789731
aF85003205
aF58479526
aF11785134
aF65852335
aF21433
aF76665788
aF53105602
aF64181189
aF98980808
aF84235209
aF53990347
aF48059343
aF18764767
aF6902756
aF53367796
aF51172342
aF76665849
aF57070596
aF45649409
aF76600328
aF74535949
aF46126097
aF5166101
aF97473559
aF6280221
aF74306594
aF4379694
aF50353199
aF66212913
aF71750713
aF99902405
aF30757952
aF9229384
aF73552974
aF17978447
aF40457302
aF56841309
aF63853666
aF47797352
aF99898476
aF17126512
aF47764602
aF61297789
aF77911169
aF56546434
aF52384904
aF2086029
aF29280105
aF32101524
aF51926171
aF4904098
aF79975589
aF35116205
aF85349559
aF39539902
aF39802053
aF6411462
aF6477000
aF54285517
aF75257047
aF87151833
aF96228590
aF46322937
aF68179197
aF25253120
aF13751562
aF23221524
aF52122909
aF38065439
aF68204763
aF9721125
aF54613292
aF16766253
aF40523059
aF95409463
aF70767930
aF88001458
aF12703042
aF12178755
aF49599815
aF87938377
aF32494923
aF120140
aF41538904
aF23844185
aF31859599
aF44422501
aF1299819
aF26105196
aF82138479
aF4085106
aF46323060
aF45438329
aF13292937
aF59168143
aF41804697
aF85677484
aF80205230
aF74012085
aF57791929
aF48784287
aF35739074
aF7853509
aF43754401
aF7460297
aF38091000
aF75978199
aF37934555
aF11392477
aF30395985
aF50157032
aF39146987
aF90265073
aF23680501
aF19453436
aF82007554
aF27153923
aF72308228
aF64181765
aF56743437
aF7755282
aF1463829
aF49174038
aF19322401
aF96261672
aF44717609
aF7296554
aF51435054
aF86103603
aF93738556
aF92919370
aF51861068
aF18404942
aF9293411
aF79222361
aF43046491
aF51467870
aF24237664
aF2709089
aF44360635
aF28694120
aF87545449
aF53433970
aF76076660
aF79550078
aF51951893
aF95606402
aF80926347
aF77813388
aF24204943
aF60216977
aF6575768
aF95311513
aF36689562
aF18863772
aF97965725
aF251551
aF44684963
aF80369318
aF67524274
aF48682683
aF54122175
aF81417922
aF17422021
aF46618314
aF44863096
aF25712339
aF52516566
aF8738519
aF43538147
aF88821373
aF74080835
aF18437881
aF89446160
aF44488473
aF25941790
aF7264042
aF61757227
aF30005041
aF66653833
aF95885417
aF24893244
aF42850109
aF62650159
aF19879746
aF69195587
aF36525893
aF57169734
aF24926024
aF91510615
aF14636900
aF1398630
aF33118056
aF80951612
aF92166001
aF46356350
aF90822551
aF3679215
aF99899292
aF61069215
aF65525668
aF92624807
aF35575720
aF88758205
aF56743871
aF86071234
aF25155534
aF42129359
aF98392016
aF15325138
aF70178774
aF69130201
aF34232286
aF29743071
aF84563936
aF85940195
aF22042598
aF41965558
aF61396983
aF91510780
aF47241218
aF30169094
aF26073100
aF13785101
aF19617807
aF53762076
aF83417125
aF51042346
aF76666927
aF51992624
aF52582457
aF48846912
aF26826824
aF80238669
aF7329874
aF33970260
aF6838357
aF36395112
aF32659564
aF39016558
aF73914483
aF42260597
aF68769919
aF70998146
aF68769923
aF74078348
aF59922578
aF11720851
aF40687766
aF98883737
aF219290
aF87054494
aF51927200
aF7755938
aF62071835
aF16832676
aF11655336
aF81057965
aF69064880
aF74700982
aF50649274
aF97179836
aF76437701
aF49076429
aF19716302
aF91759651
aF63985876
aF40884441
aF32427729
aF51173623
aF79845625
aF71489789
aF23484676
aF97704199
aF94427403
aF30955792
aF77191442
aF71981332
aF84859157
aF12343577
aF97999135
aF31578404
aF40196412
aF43374909
aF86333775
aF23255378
aF70536931
aF56449378
aF58120550
aF65526120
aF22750824
aF13883759
aF34830739
aF68475252
aF62413176
aF82958713
aF75192701
aF645502
aF99637632
aF44849537
aF74987926
aF33970568
aF11557259
aF29284754
aF33642905
aF57661852
aF29664325
aF70343079
aF72898985
aF46782890
aF57432499
aF58677686
aF2972087
aF1694138
aF54060107
aF33085893
aF4905415
aF71391688
aF54909399
aF37935576
aF42228187
aF16275932
aF57498079
aF74209760
aF45469435
aF46258661
aF57730129
aF42424809
aF16169383
aF65133036
aF42654196
aF42129910
aF64969209
aF86727162
aF57924098
aF74144260
aF32051622
aF81549838
aF11524626
aF95967766
aF39019609
aF3627548
aF74734109
aF22534693
aF64346684
aF54843967
aF52550208
aF22796865
aF41802308
aF47307341
aF71096919
aF26794589
aF20142688
aF7559779
aF69196393
aF23230911
aF60185212
aF86760063
aF68672129
aF44194438
aF83843722
aF13720204
aF4381328
aF24697491
aF96423705
aF75979421
aF93510303
aF23255717
aF23861605
aF80599720
aF37673642
aF25571406
aF19454643
aF53762747
aF54196682
aF87972546
aF71064259
aF17881798
aF12704456
aF62315209
aF90823378
aF2841300
aF94132953
aF38197978
aF9001700
aF50027237
aF6544103
aF82303724
aF58972909
aF35281646
aF73915123
aF11950842
aF65807487
aF63101715
aF53959451
aF47471406
aF63626033
aF25647926
aF7726219
aF82369349
aF55565131
aF47962957
aF89250640
aF78895956
aF68672341
aF8018776
aF61037403
aF98881339
aF66083700
aF31939454
aF11033472
aF37313409
aF22371206
aF75750292
aF16497134
aF13130646
aF61004704
aF41638822
aF8444839
aF14408621
aF96394174
aF69262271
aF39640003
aF58088391
aF33479627
aF81386452
aF82369494
aF40721372
aF10542060
aF84499439
aF49142770
aF40786935
aF48258053
aF5823494
aF73491628
aF91315210
aF9427987
aF31153172
aF68901918
aF81732784
aF13292217
aF18504744
aF57498666
aF51207220
aF24435770
aF92888125
aF44653635
aF75390020
aF54910023
aF80829513
aF90102861
aF18537558
aF27548761
aF68344922
aF64969822
aF84466787
aF11394149
aF84204647
aF42916972
aF27955048
aF53042296
aF58481799
aF30956693
aF74144918
aF46849177
aF42785947
aF78044316
aF16047261
aF87809191
aF65166511
aF39443634
aF94198963
aF37941565
aF52845763
aF48028872
aF42228941
aF17554638
aF1301714
aF90103006
aF45786320
aF71163108
aF3464427
aF37084408
aF69917946
aF46652672
aF75455750
aF13491464
aF17239939
aF42753309
aF3595554
aF47930677
aF50126134
aF27024695
aF11296072
aF44129615
aF50617680
aF11099474
aF30203223
aF82664793
aF6380907
aF42130797
aF85613938
aF33086836
aF95772021
aF63954295
aF41115004
aF85053295
aF10345860
aF48946594
aF30924199
aF56876456
aF44948911
aF82238896
aF99081652
aF57925046
aF76996025
aF46521793
aF83418563
aF38362569
aF61693395
aF91610580
aF93117912
aF64904667
aF8412636
aF82697711
aF60710385
aF16702962
aF6282740
aF26486014
aF78011900
aF31088125
aF74898945
aF83844610
aF84106762
aF35085835
aF26041874
aF38592020
aF77258262
aF44490265
aF83516955
aF70245916
aF18709084
aF46325292
aF66936383
aF5711115
aF69230149
aF37477964
aF76282466
aF24141410
aF51273327
aF72408707
aF4775559
aF21388948
aF37150357
aF44115227
aF34070182
aF90398376
aF46980779
aF32923308
aF47570605
aF68378288
aF72776307
aF49471164
aF20242112
aF88494028
aF42819293
aF85184464
aF97279718
aF35905255
aF22535925
aF36593398
aF91643642
aF6126207
aF42721020
aF58156333
aF25583378
aF81616660
aF60874518
aF36134689
aF20832034
aF42229540
aF19095334
aF11871215
aF4087593
aF70311724
aF72474416
aF2187058
aF47800115
aF68149051
aF26926912
aF32661314
aF55304010
aF54779731
aF7266140
aF64773987
aF35315560
aF14245739
aF82141048
aF79870612
aF30793600
aF98983811
aF20078468
aF8773511
aF30039958
aF18472856
aF89153440
aF58449829
aF67559335
aF4677546
aF58089396
aF70639546
aF39509947
aF58482626
aF76242889
aF13393869
aF18964438
aF95772634
aF81190878
aF14573541
aF20701161
aF51666928
aF13295607
aF55533562
aF53317634
aF10772500
aF30334999
aF78962712
aF76173316
aF14901288
aF42164266
aF84762669
aF11427894
aF18604088
aF7888960
aF25911361
aF85844036
aF61104208
aF9003089
aF1761363
aF27648088
aF67002458
aF46325851
aF42754153
aF12017776
aF81780856
aF5431421
aF81125523
aF64675989
aF27025558
aF14737563
aF54878366
aF38494379
aF44687532
aF70541485
aF90431664
aF33022133
aF8806596
aF43476342
aF55861446
aF95281358
aF9953495
aF12902622
aF10281188
aF90530022
aF7332071
aF75751661
aF72737006
aF1958134
aF75751672
aF6611197
aF15687935
aF94822658
aF79618319
aF778513
aF18638211
aF36659476
aF56090903
aF71164192
aF63496481
aF46653732
aF61727013
aF41181480
aF83550513
aF9953594
aF10314061
aF56320335
aF13492566
aF79552855
aF40067426
aF39182700
aF88483218
aF38560112
aF30105972
aF40722805
aF86040950
aF20734330
aF18473340
aF59367809
aF46522759
aF72409482
aF71983508
aF92789442
aF3461188
aF35709346
aF89678244
aF19259815
aF43984284
aF36790698
aF17785260
aF61104560
aF64545203
aF41574842
aF99213755
aF55697874
aF51077588
aF14639573
aF63758814
aF3498464
aF44720625
aF61530616
aF21225979
aF9757183
aF64709127
aF28828175
aF11264530
aF45933076
aF43760388
aF29876767
aF14869033
aF45998659
aF48718407
aF65036882
aF77161045
aF91906647
aF84556559
aF91770981
aF20865633
aF91566292
aF23388774
aF50225768
aF55206505
aF6152812
aF99050094
aF23224954
aF14901883
aF49729646
aF85975709
aF13755042
aF72671908
aF39456881
aF37806760
aF93414059
aF75293356
aF87974574
aF17490615
aF65430205
aF86434495
aF20210373
aF2936952
aF98853587
aF5300951
aF31122136
aF63005403
aF79880930
aF99672807
aF23651049
aF75424491
aF92988152
aF7594749
aF51700478
aF57205509
aF8741639
aF18801436
aF93446945
aF5563172
aF4121383
aF34890538
aF92529451
aF9069356
aF74048303
aF10707768
aF24077116
aF96166717
aF85680961
aF61334345
aF27288397
aF44720981
aF73294680
aF99345246
aF6546272
aF99246948
aF14001639
aF93119346
aF90956660
aF20996985
aF75817851
aF96789373
aF72639372
aF26497176
aF73458581
aF15328150
aF26796953
aF76080027
aF18932636
aF29909917
aF20702111
aF39216033
aF45147046
aF123816
aF39805871
aF52847536
aF12280760
aF42913951
aF70089546
aF80765888
aF88729078
aF28566473
aF43344848
aF55960532
aF34169813
aF72836055
aF74605530
aF39478244
aF14705640
aF84567018
aF52225006
aF34825203
aF76964864
aF93873155
aF39216136
aF54944782
aF8119312
aF14214181
aF26436647
aF89515051
aF69526575
aF31450169
aF93545532
aF20079683
aF97281092
aF26109003
aF78439501
aF69231694
aF59860049
aF34530389
aF53470297
aF32597083
aF96298078
aF90334312
aF9593963
aF23290988
aF49669237
aF55731320
aF96789634
aF30925957
aF91677833
aF15099019
aF80995469
aF96101912
aF90531353
aF2516123
aF90236060
aF5727389
aF28206239
aF58534
aF44328105
aF9790634
aF71132332
aF3466417
aF9233588
aF5039288
aF88695993
aF37086394
aF40821949
aF89613519
aF11003089
aF27157728
aF63202535
aF46523626
aF6448364
aF35251443
aF83420415
aF5760260
aF26993938
aF62678292
aF72377903
aF74999069
aF38233378
aF86637446
aF37578029
aF72082746
aF5530940
aF50586952
aF24733006
aF5793103
aF5039444
aF51275093
aF18441560
aF31122785
aF92267875
aF58123622
aF46884199
aF72901994
aF37315948
aF4318576
aF48260470
aF63628665
aF73917821
aF69461375
aF20833667
aF49603972
aF91973000
aF28010050
aF77718929
aF15918496
aF66020787
aF71820731
aF40035778
aF77030851
aF88204752
aF35579349
aF10905050
aF96036335
aF86468086
aF13919746
aF36518828
aF72607243
aF29386253
aF13952527
aF47343120
aF79586834
aF92366355
aF20211222
aF13559320
aF84239897
aF49014300
aF99444254
aF41281055
aF33416738
aF95348259
aF92628516
aF95675948
aF15984175
aF45180465
aF24045119
aF65103426
aF56649285
aF76670541
aF94725715
aF32106071
aF67200601
aF94168670
aF96560741
aF976489
aF95479407
aF12904049
aF34236018
aF8775288
aF17458809
aF91542322
aF12969598
aF19850883
aF83977872
aF4220566
aF75261591
aF20833946
aF89417376
aF2254499
aF9234084
aF57927335
aF70510250
aF79095471
aF92300984
aF54879937
aF78997189
aF63530695
aF96265931
aF13493969
aF19424978
aF85321428
aF60024548
aF67626726
aF81252969
aF33613548
aF98494189
aF56518384
aF10774258
aF24569590
aF64546552
aF49538809
aF47245058
aF80865031
aF21489283
aF79554330
aF28987696
aF15197992
aF9201450
aF46524203
aF13657903
aF90236725
aF98821943
aF85714745
aF92759877
aF24017889
aF70313805
aF45967189
aF57632598
aF2942808
aF45442907
aF11462495
aF55109472
aF30336872
aF49244011
aF29026157
aF92268402
aF15886195
aF88893304
aF33056636
aF44361602
aF65628035
aF78210948
aF96102038
aF14018449
aF23095187
aF8841108
aF48195477
aF74311574
aF96069534
aF41805733
aF50685863
aF40921000
aF61204394
aF88631211
aF77981619
aF95446974
aF92792779
aF9988045
aF8906703
aF66414553
aF22931421
aF17655790
aF60909553
aF15656950
aF32237560
aF55109625
aF61401082
aF7137281
aF11921414
aF70838279
aF36694030
aF27387920
aF67430423
aF91744280
aF2582553
aF70805542
aF91645991
aF18049067
aF3041334
aF71854136
aF88696889
aF55568442
aF19359807
aF32892994
aF3205193
aF24406094
aF79882323
aF42133588
aF86572046
aF57960535
aF12063076
aF20768858
aF31844444
aF5466213
aF39970924
aF16115822
aF90695794
aF37316723
aF52390008
aF46962038
aF98920586
aF59795595
aF16083088
aF27977881
aF31844509
aF59992227
aF43935909
aF24373416
aF62974125
aF90695858
aF44918969
aF76343489
aF5073102
aF4417744
aF97872083
aF26044629
aF16836827
aF6777057
aF10217701
aF77424871
aF85616878
aF87118205
aF94977064
aF41478386
aF34498809
aF99215611
aF74967292
aF76343560
aF53799183
aF91640195
aF9824536
aF81914137
aF80636192
aF53012778
aF79063344
aF80079154
aF93240371
aF85299593
aF45508920
aF18901306
aF93841731
aF79915336
aF76785379
aF75852118
aF53143899
aF68413788
aF15624542
aF15755620
aF61303152
aF26077555
aF10152309
aF28076409
aF27617658
aF91923152
aF51505533
aF36891017
aF24177035
aF4352397
aF87845276
aF92727719
aF83782056
aF40626608
aF91941304
aF83502836
aF46295487
aF9628096
aF94157899
aF6023620
aF98789834
aF6416853
aF49932025
aF47802842
aF50719196
aF30403038
aF40898982
aF62974461
aF28338687
aF27257344
aF87107328
aF54290946
aF47475206
aF42068489
aF95775244
aF2615824
aF91712017
aF11954713
aF89811482
aF89516571
aF61991460
aF32107046
aF30009900
aF1036722
aF25520686
aF44231222
aF66513464
aF25448884
aF85715532
aF6351441
aF9693786
aF75852380
aF89812914
aF81947233
aF44198501
aF69429862
aF37284457
aF64678520
aF51735161
aF10091626
aF84273792
aF30796418
aF88763012
aF67168907
aF95054481
aF89877140
aF86829725
aF31091359
aF38136483
aF25914021
aF24996519
aF96070321
aF95120055
aF25684672
aF29518534
aF50686664
aF78047947
aF62352086
aF49703647
aF62548705
aF19852007
aF44067563
aF99183352
aF17885957
aF39611148
aF44657421
aF66579214
aF39152407
aF14052122
aF50162466
aF95120164
aF40758053
aF58452775
aF87812905
aF9136942
aF9104175
aF56978225
aF73296697
aF59173698
aF59894598
aF41446217
aF64351052
aF54356823
aF11004766
aF53111652
aF34335594
aF91548524
aF12544878
aF81750898
aF24996723
aF4516725
aF48458614
aF51276663
aF99576701
aF28765055
aF50097024
aF60320643
aF63007622
aF9726863
aF36596626
aF74410905
aF96955292
aF55176102
aF72018860
aF10152879
aF74083250
aF84732855
aF96431038
aF20376514
aF68873161
aF7826381
aF13134801
aF73788371
aF82144213
aF45935574
aF30927834
aF6187997
aF7105502
aF80440290
aF79260644
aF62778342
aF96103399
aF29354985
aF73478710
aF18344940
aF90237933
aF19164151
aF65661945
aF79293436
aF56650749
aF83389439
aF89287686
aF93613067
aF96300044
aF25095184
aF96954375
aF97669639
aF7367725
aF75983920
aF68784649
aF58092606
aF12741697
aF69987396
aF61598801
aF18279506
aF98757716
aF36105306
aF68512870
aF68578409
aF81423468
aF48786552
aF99609721
aF5893243
aF88403071
aF37383315
aF40299668
aF23653525
aF22375578
aF36203678
aF47508640
aF90959011
aF83225764
aF2059429
aF49179817
aF11562174
aF63892673
aF53210306
aF21949635
aF21937357
aF72510676
aF10153173
aF72454693
aF28929252
aF19840209
aF48131306
aF95874287
aF67497200
aF2747640
aF9759994
aF68807936
aF57109761
aF52030725
aF13888784
aF76082455
aF45182232
aF20933913
aF67464482
aF52784420
aF46361895
aF80866603
aF8318254
aF51572033
aF30534982
aF55766343
aF1928520
aF8318282
aF22244688
aF76148059
aF67333474
aF83355537
aF52358512
aF12643700
aF7400823
aF57372033
aF62582147
aF21884301
aF80637329
aF66809234
aF50294167
aF47476125
aF35286431
aF98609051
aF78769578
aF67693995
aF45936044
aF94671432
aF38858165
aF14478782
aF75296196
aF59370952
aF67988938
aF54914512
aF96136658
aF45968851
aF25816532
aF78441942
aF24735195
aF93663
aF90864891
aF18673127
aF41872874
aF70249966
aF82144752
aF60976625
aF80047605
aF22932987
aF41610751
aF57961990
aF64089610
aF44133901
aF50916880
aF35384852
aF3993115
aF3960353
aF84376838
aF60485158
aF63794729
aF37023274
aF41119275
aF91516467
aF45575733
aF52915784
aF21425737
aF24014420
aF67333719
aF28896857
aF81686106
aF19459681
aF44396132
aF29519462
aF65797395
aF29519477
aF8908407
aF20147832
aF64974461
aF60092031
aF46853766
aF24669851
aF72183477
aF56618684
aF68710080
aF78966467
aF42004171
aF22834908
aF3436256
aF84307681
aF2125546
aF44003053
aF11202293
aF1437431
aF75067129
aF44920571
aF6647551
aF10350336
aF323330
aF54226691
aF20639494
aF83890817
aF40955669
aF91351001
aF22376217
aF50589479
aF8154922
aF85126955
aF66744108
aF25915183
aF65466160
aF62189387
aF65957712
aF24342362
aF15888224
aF82374500
aF85192550
aF3698538
aF95088492
aF31846253
aF85159795
aF47509368
aF9138041
aF90697603
aF30371716
aF97152902
aF19459986
aF52761241
aF75460511
aF59862955
aF33288109
aF93810607
aF62189489
aF25423794
aF22540213
aF14839748
aF19558348
aF52228045
aF97480654
aF24702930
aF90927061
aF71299032
aF16510937
aF38236122
aF18939215
aF40267740
aF7794653
aF61698031
aF34435056
aF41480181
aF96291001
aF82440188
aF64122897
aF56094741
aF40562711
aF39776283
aF63008799
aF44855328
aF53866531
aF99676196
aF15626277
aF48754726
aF75657255
aF74379307
aF79458349
aF42823728
aF29512371
aF29913145
aF93351998
aF41709632
aF77426763
aF45019215
aF45740119
aF89485400
aF14741593
aF92729436
aF39678052
aF83587192
aF28242048
aF56389762
aF79261836
aF27259025
aF3207319
aF9826459
aF3076254
aF71004320
aF50950307
aF84272209
aF8155305
aF20705455
aF84635828
aF99414200
aF72970425
aF84537530
aF25784510
aF7565508
aF82931912
aF651472
aF25686225
aF80736466
aF1142996
aF14020829
aF90140895
aF69890275
aF86667495
aF10350824
aF27128046
aF52195575
aF26767612
aF9040125
aF79499609
aF85946629
aF7958790
aF44560648
aF15102217
aF65597712
aF89583904
aF7598372
aF11465001
aF57831723
aF84341038
aF13079261
aF50917680
aF74969395
aF32829749
aF69464381
aF10645823
aF15200576
aF50658699
aF14346294
aF9924948
aF77427029
aF97907036
aF35221859
aF41251178
aF92533099
aF32928109
aF51081589
aF57635199
aF48525703
aF46723464
aF77820308
aF7205273
aF11628959
aF8253859
aF58519972
aF46098505
aF88273341
aF22999487
aF79294914
aF75821521
aF18936276
aF32502231
aF69792221
aF76542437
aF95973868
aF96727538
aF91050750
aF8614390
aF46658041
aF89747962
aF20967931
aF42791421
aF36336127
aF30339592
aF19526159
aF87912231
aF69071381
aF54489622
aF9990685
aF69235232
aF324130
aF40038947
aF13529637
aF92992038
aF15528489
aF60027447
aF48067133
aF67039809
aF750154
aF27521612
aF23163472
aF586323
aF68055638
aF81261144
aF92795484
aF7598686
aF64385634
aF36598385
aF96891506
aF92697207
aF27161208
aF54424185
aF25460159
aF79688318
aF12251777
aF59811947
aF69825156
aF6713991
aF85553807
aF49833978
aF39350931
aF62597230
aF74412706
aF52261540
aF31847077
aF47903406
aF29684401
aF39580346
aF5993148
aF86864573
aF39875262
aF12350148
aF37679817
aF86209230
aF76772053
aF73724630
aF31027935
aF37614304
aF15987431
aF40792819
aF67236597
aF61141755
aF15823632
aF80499502
aF68973335
aF93385500
aF17855261
aF60748575
aF1930022
aF93844263
aF39613225
aF27259693
aF74183470
aF82178879
aF24212290
aF79950660
aF56226630
aF80868172
aF27947854
aF40366931
aF8680277
aF31527737
aF18117465
aF55407452
aF22147936
aF38430864
aF24245091
aF99971945
aF7271277
aF90469230
aF99218290
aF67433331
aF37679989
aF82277242
aF23982978
aF97451499
aF94401414
aF38630280
aF35910545
aF85029783
aF8876955
aF57373603
aF68055972
aF91127805
aF59582621
aF67466183
aF88899063
aF90772304
aF88175587
aF96203751
aF29488105
aF89554429
aF5272560
aF97872040
aF2454518
aF60290040
aF18084871
aF47805452
aF63665166
aF28439570
aF61928467
aF19723291
aF96302111
aF11269154
aF27693915
aF31683625
aF44692526
aF84571184
aF10449969
aF29291578
aF45315133
aF12416075
aF94467148
aF16577615
aF50656341
aF44332118
aF50623580
aF33846366
aF69923936
aF66319457
aF91386979
aF20018277
aF84636779
aF97473385
aF80901243
aF95319166
aF87159936
aF44201090
aF7697548
aF62583949
aF95941775
aF26178721
aF80868517
aF21656743
aF76805290
aF74708139
aF48441544
aF74183872
aF20673729
aF26014920
aF31028436
aF87749847
aF69629145
aF89617636
aF41186533
aF87061740
aF12973293
aF26506484
aF87979255
aF35328896
aF65402117
aF55768326
aF85521671
aF36730121
aF23590157
aF95515918
aF17429776
aF69530902
aF45020439
aF41710872
aF97056026
aF5469468
aF99480861
aF56849695
aF61404450
aF61699369
aF92894508
aF34239798
aF28308794
aF7632188
aF52098365
aF89453890
aF50132291
aF86078788
aF77264204
aF49968461
aF38401362
aF74904919
aF82736481
aF36959590
aF18347375
aF98891123
aF8418681
aF23459195
aF41743740
aF3614954
aF47936896
aF43152776
aF57996682
aF1406347
aF58717580
aF61658008
aF64386450
aF53048730
aF57037722
aF29128096
aF30668197
aF17003948
aF68449740
aF95878733
aF74970588
aF41416169
aF40072683
aF50263536
aF98334202
aF32044539
aF78116351
aF95352330
aF52524555
aF63829529
aF27063834
aF73659942
aF27260457
aF46528045
aF94893618
aF259641
aF70874684
aF19232318
aF55572032
aF77493826
aF53999173
aF521798
aF13366864
aF48108472
aF25884248
aF5318928
aF67434090
aF29463485
aF46364276
aF30602874
aF87258748
aF43873932
aF4290195
aF18544282
aF3471004
aF57308830
aF41407429
aF8863344
aF20149923
aF15038123
aF60683953
aF75822770
aF88274612
aF33909024
aF8845005
aF53081807
aF42628816
aF97351391
aF35157729
aF46659299
aF54621924
aF37680869
aF8388221
aF65530154
aF43677447
aF40498954
aF52786955
aF5764877
aF51377941
aF31749911
aF84251610
aF42366750
aF68238981
aF48199460
aF16545575
aF93386537
aF69891887
aF54687539
aF46289887
aF68613977
aF20903771
aF93648732
aF20576093
aF84572004
aF51541878
aF97810296
aF13319829
aF76838796
aF86079380
aF32962454
aF79689632
aF65009572
aF97384357
aF96892848
aF1701814
aF58652601
aF90503104
aF92993473
aF11565012
aF77264857
aF72382429
aF49706975
aF27523049
aF27490283
aF55080940
aF9140208
aF6846450
aF76507475
aF92141559
aF91092987
aF9600682
aF84015107
aF32372740
aF27785224
aF11237390
aF3995671
aF28997656
aF91682845
aF45512735
aF86308901
aF19626025
aF41145351
aF6256698
aF71956539
aF14892768
aF54458433
aF54163524
aF12730039
aF10123341
aF77785444
aF99547227
aF55375966
aF56817760
aF56686693
aF87927143
aF13039727
aF9959543
aF6256762
aF28309636
aF89913482
aF17561744
aF61470876
aF77330604
aF72972475
aF2440906
aF5437633
aF69500619
aF43219140
aF1177802
aF61667533
aF91420880
aF80050389
aF64321754
aF23689437
aF85398565
aF22247655
aF40368360
aF2390260
aF91683069
aF77658366
aF66091268
aF26727470
aF90798367
aF1112365
aF72808750
aF22837551
aF70514993
aF3340600
aF95888453
aF70711617
aF62814530
aF96794950
aF62388557
aF83097935
aF84399161
aF36305242
aF83523942
aF33192300
aF93223286
aF51935607
aF33814912
aF55540099
aF34830731
aF36338063
aF55933329
aF30603667
aF95517081
aF83622305
aF73333158
aF162235
aF784828
aF47806911
aF81525190
aF26573258
aF58554827
aF5843362
aF77920719
aF42531290
aF92928479
aF37845472
aF98335202
aF68975077
aF51771879
aF73333229
aF96139766
aF67172857
aF37911034
aF48265725
aF95451646
aF358912
aF69892611
aF11008517
aF89881103
aF54983191
aF32864793
aF16939552
aF22608418
aF29653546
aF57343751
aF32340524
aF72940080
aF85031474
aF76544565
aF38468156
aF12188223
aF88963650
aF47610436
aF36272716
aF19659342
aF9730652
aF47544930
aF43809385
aF99383916
aF31816307
aF92863098
aF87714239
aF13204095
aF27916930
aF94930452
aF77953684
aF93977239
aF89041348
aF26606245
aF33913516
aF11434671
aF94370487
aF77068986
aF25262784
aF20642500
aF16480971
aF85261011
aF43088605
aF98826975
aF49380074
aF81197814
aF33319381
aF40315350
aF73792264
aF8551178
aF98997379
aF28539677
aF43678494
aF88210207
aF76151584
aF45218620
aF42793796
aF87751494
aF75561802
aF70482764
aF90733389
aF66344077
aF26050360
aF30538580
aF63142743
aF96020964
aF68942691
aF16087914
aF94437183
aF90012544
aF69434246
aF12713794
aF6912914
aF35879829
aF88480791
aF16350107
aF4488097
aF34044842
aF57899951
aF64551860
aF13794229
aF13663172
aF78117829
aF21232583
aF49118154
aF15072207
aF52296669
aF78184272
aF94305262
aF78117872
aF30473209
aF55180282
aF35486715
aF44694528
aF46005252
aF45218824
aF44530702
aF86211601
aF61996056
aF94972420
aF89914394
aF28245023
aF24476704
aF59210788
aF4619304
aF56818729
aF82115629
aF29260848
aF88734769
aF6126642
aF91286025
aF52853819
aF74054716
aF72809539
aF58293317
aF54918216
aF99155024
aF19823698
aF38933689
aF56654942
aF8125538
aF35552355
aF24640616
aF61308010
aF23854188
aF44530799
aF1342577
aF27950197
aF91373419
aF52100236
aF35749009
aF97811610
aF39517339
aF70483104
aF64486571
aF21298349
aF87719953
aF81362107
aF4357314
aF14712013
aF61078737
aF45186274
aF32275688
aF11107566
aF37551343
aF28802288
aF59440370
aF19922166
aF79448428
aF8256763
aF78260778
aF67599618
aF86998276
aF94960901
aF50429190
aF99876107
aF37977362
aF75234579
aF58223150
aF63012740
aF20118812
aF25656614
aF25853223
aF26672424
aF6913325
aF83526550
aF91487536
aF3996995
aF5995847
aF18316617
aF74186063
aF11271506
aF92896596
aF81853781
aF66190682
aF72416609
aF37059939
aF77004138
aF3603822
aF99286384
aF64060792
aF38010772
aF71662983
aF79166859
aF97320337
aF18611622
aF86867370
aF3767728
aF2457012
aF16514485
aF42401215
aF83328454
aF13958601
aF2391503
aF59145681
aF57441750
aF98172381
aF7044577
aF57305681
aF33422826
aF56655339
aF35126765
aF58752501
aF13958647
aF22511097
aF18087421
aF59702782
aF77004301
aF93322776
aF59913936
aF88833576
aF22249001
aF1343024
aF47382091
aF55082573
aF66354769
aF24411739
aF56557151
aF2489952
aF5963362
aF13237862
aF16416361
aF41352813
aF6717038
aF91553392
aF73039481
aF22249085
aF71532162
aF72154756
aF58556038
aF88577303
aF71630477
aF1375889
aF28016277
aF79462038
aF46005911
aF38338201
aF23232169
aF4030122
aF38617031
aF81690288
aF65928881
aF86441655
aF2358973
aF63110857
aF67272394
aF41451211
aF76682530
aF17596111
aF86436472
aF64541987
aF42166905
aF26443483
aF45809373
aF15367904
aF4456162
aF70942436
aF64028395
aF14188268
aF77037299
aF59997946
aF62979839
aF41058052
aF42598149
aF24149767
aF1834763
aF52985624
aF99483420
aF6291233
aF60849960
aF11829035
aF62521133
aF33980210
aF86015795
aF79789879
aF42499896
aF39419707
aF58064701
aF76414783
aF66584386
aF6192967
aF77102928
aF13369170
aF68321107
aF68091739
aF38698844
aF32309087
aF58392416
aF884585
aF46858090
aF54361965
aF68779897
aF62881660
aF86769538
aF17923972
aF13107077
aF71521602
aF74776463
aF72417171
aF33401670
aF44171161
aF88047516
aF60850086
aF11829170
aF21757875
aF50986938
aF24903615
aF73203651
aF73203652
aF85622731
aF86885595
aF87354781
aF95895546
aF56262623
aF49643493
aF70352873
aF9601003
aF13205487
aF43548665
aF30474234
aF64782333
aF57054549
a.