(dp1
S'dm'
p2
(dp3
F37101576
I1
sF12599306
I1
sF47390737
I1
sF44072978
I1
sF23311449
I1
sF41877527
I1
sF17702942
I1
sF68665381
I1
sF42164266
I1
sF92651563
I1
sF81928245
I1
sF11427894
I1
sF31957050
I1
sF49512507
I1
sF24789056
I1
sF25911361
I1
sF8044610
I1
sF77135939
I1
sF85844036
I1
sF9003089
I1
sF69558355
I1
sF87179350
I1
sF74154073
I1
sF46325851
I1
sF82706527
I1
sF53313633
I1
sF52461585
I1
sF40140904
I1
sF96036335
I1
sF92700790
I1
sF5431421
I1
sF12320902
I1
sF40681608
I1
sF77922441
I1
sF35258507
I1
sF18423952
I1
sF49651867
I1
sF54878366
I1
sF42139811
I1
sF67158182
I1
sF30015661
I1
sF75350194
I1
sF33022133
I1
sF48595133
I1
sF7643328
I1
sF8806596
I1
sF32473287
I1
sF92012744
I1
sF95281358
I1
sF22159578
I1
sF67477725
I1
sF10281188
I1
sF50479334
I1
sF49103079
I1
sF91717868
I1
sF75751661
I1
sF778513
I1
sF61292818
I1
sF20257498
I1
sF31760671
I1
sF71614752
I1
sF63496481
I1
sF22358748
I1
sF54173999
I1
sF31498544
I1
sF24548744
I1
sF33554750
I1
sF44515649
I1
sF89162055
I1
sF81273161
I1
sF68690253
I1
sF75759955
I1
sF79552855
I1
sF82149721
I1
sF29696350
I1
sF40067426
I1
sF33595748
I1
sF90513765
I1
sF21891900
I1
sF17244524
I1
sF69304686
I1
sF38560112
I1
sF77799810
I1
sF46522759
I1
sF16687497
I1
sF33923467
I1
sF89169986
I1
sF7291278
I1
sF18301328
I1
sF54706586
I1
sF17637790
I1
sF35709346
I1
sF47022508
I1
sF85033389
I1
sF29868466
I1
sF99893686
I1
sF62816701
I1
sF13468094
I1
sF61435979
I1
sF81197814
I1
sF5210570
I1
sF99779024
I1
sF95240671
I1
sF15811040
I1
sF61047267
I1
sF25182692
I1
sF20251114
I1
sF44720625
I1
sF25821685
I1
sF8593910
I1
sF19431932
I1
sF75727361
I1
sF72434179
I1
sF77677066
I1
sF14426637
I1
sF5296218
I1
sF29876767
I1
sF45720097
I1
sF23724584
I1
sF14869033
I1
sF45777450
I1
sF45924915
I1
sF83132980
I1
sF17826358
I1
sF51397177
I1
sF74012085
I1
sF5677632
I1
sF17736265
I1
sF70435403
I1
sF31334990
I1
sF96535124
I1
sF20865633
I1
sF23388774
I1
sF27099751
I1
sF50225768
I1
sF55206505
I1
sF52953707
I1
sF99050094
I1
sF6750831
I1
sF45679217
I1
sF3965564
I1
sF87134314
I1
sF29557374
I1
sF43262591
I1
sF64430731
I1
sF47030929
I1
sF85975709
I1
sF13755042
I1
sF78381732
I1
sF39027366
I1
sF37806760
I1
sF93414059
I1
sF87974574
I1
sF17490615
I1
sF83313347
I1
sF26550981
I1
sF4432584
I1
sF29467343
I1
sF81175248
I1
sF47596242
I1
sF19595994
I1
sF58598107
I1
sF45818591
I1
sF79880930
I1
sF47907558
I1
sF17531624
I1
sF23651049
I1
sF18301676
I1
sF19636979
I1
sF39527160
I1
sF75170595
I1
sF5563172
I1
sF31441701
I1
sF4121383
I1
sF92529451
I1
sF5677872
I1
sF4408116
I1
sF86983477
I1
sF24322874
I1
sF12141376
I1
sF67216203
I1
sF84829005
I1
sF23003993
I1
sF99345246
I1
sF115552
I1
sF57424700
I1
sF67044203
I1
sF93119346
I1
sF31720308
I1
sF84190074
I1
sF28353407
I1
sF15480299
I1
sF31859599
I1
sF70075283
I1
sF64963477
I1
sF41943958
I1
sF46635844
I1
sF45876123
I1
sF18932636
I1
sF29909917
I1
sF28976030
I1
sF48784287
I1
sF16699551
I1
sF74032069
I1
sF67470281
I1
sF55518158
I1
sF64160719
I1
sF29033428
I1
sF97207254
I1
sF72836055
I1
sF22954975
I1
sF38970336
I1
sF39478244
I1
sF6824938
I1
sF96764908
I1
sF52225006
I1
sF93266929
I1
sF44653396
I1
sF78116351
I1
sF82756604
I1
sF11437056
I1
sF2073603
I1
sF21693445
I1
sF39216136
I1
sF3376137
I1
sF9741324
I1
sF54944782
I1
sF16696335
I1
sF50250768
I1
sF74351649
I1
sF90604580
I1
sF10396710
I1
sF35898407
I1
sF31450169
I1
sF93545532
I1
sF7128126
I1
sF20079683
I1
sF97281092
I1
sF82846789
I1
sF40084556
I1
sF96814605
I1
sF57730129
I1
sF21267541
I1
sF39019609
I1
sF89261148
I1
sF38519905
I1
sF90334312
I1
sF42943595
I1
sF10298477
I1
sF70599793
I1
sF94930452
I1
sF29181050
I1
sF50373759
I1
sF58492037
I1
sF79242377
I1
sF15099019
I1
sF69305484
I1
sF53383362
I1
sF93471889
I1
sF32416914
I1
sF27698325
I1
sF57558166
I1
sF54240412
I1
sF39650462
I1
sF81773729
I1
sF12035236
I1
sF44328105
I1
sF71132332
I1
sF52004015
I1
sF49759413
I1
sF90211520
I1
sF89613519
I1
sF1164496
I1
sF11003089
I1
sF95348259
I1
sF73073882
I1
sF88163559
I1
sF27044732
I1
sF6448364
I1
sF17089777
I1
sF70886642
I1
sF52339963
I1
sF75465980
I1
sF5711115
I1
sF20915475
I1
sF86181142
I1
sF11150615
I1
sF62096666
I1
sF22185247
I1
sF77628711
I1
sF56304945
I1
sF90789427
I1
sF41714997
I1
sF5530940
I1
sF96740672
I1
sF13698369
I1
sF22283588
I1
sF33850698
I1
sF24733006
I1
sF82314576
I1
sF75900252
I1
sF26248543
I1
sF31122785
I1
sF92267875
I1
sF98846053
I1
sF58123622
I1
sF93738556
I1
sF1844588
I1
sF80528764
I1
sF73917821
I1
sF31032702
I1
sF62915967
I1
sF55572032
I1
sF18638211
I1
sF91973000
I1
sF29861270
I1
sF1254810
I1
sF33105307
I1
sF43984284
I1
sF35554721
I1
sF2655655
I1
sF33170868
I1
sF64037927
I1
sF77505980
I1
sF85624256
I1
sF99272134
I1
sF96945614
I1
sF88204752
I1
sF75548125
I1
sF1590755
I1
sF28083688
I1
sF77432301
I1
sF21579247
I1
sF52299248
I1
sF77579762
I1
sF69797369
I1
sF17802746
I1
sF74827261
I1
sF13919746
I1
sF29386253
I1
sF4195860
I1
sF89794069
I1
sF20211222
I1
sF66438680
I1
sF61687322
I1
sF41281055
I1
sF33416738
I1
sF14816859
I1
sF71840006
I1
sF68789799
I1
sF41403949
I1
sF72377903
I1
sF28067380
I1
sF97592891
I1
sF38782524
I1
sF23004737
I1
sF65103426
I1
sF15509059
I1
sF93117912
I1
sF56649285
I1
sF18122319
I1
sF94725715
I1
sF32106071
I1
sF74794586
I1
sF94168670
I1
sF64562783
I1
sF96560741
I1
sF95479407
I1
sF84944506
I1
sF19850883
I1
sF7374468
I1
sF93109187
I1
sF96102038
I1
sF84944540
I1
sF14927527
I1
sF10659501
I1
sF12224175
I1
sF91489971
I1
sF79136436
I1
sF47449784
I1
sF54879937
I1
sF78997189
I1
sF63530695
I1
sF13493969
I1
sF49219282
I1
sF9717459
I1
sF85321428
I1
sF37078742
I1
sF39651036
I1
sF40699613
I1
sF24495840
I1
sF63514340
I1
sF67626726
I1
sF89278184
I1
sF33613548
I1
sF59746029
I1
sF52053749
I1
sF46384888
I1
sF49932025
I1
sF2762496
I1
sF97404674
I1
sF82369494
I1
sF84518666
I1
sF23136014
I1
sF48703250
I1
sF21489283
I1
sF81463060
I1
sF67847965
I1
sF24594213
I1
sF13657903
I1
sF75278134
I1
sF78087992
I1
sF30287677
I1
sF48736062
I1
sF58511669
I1
sF26511169
I1
sF92759877
I1
sF34817865
I1
sF67405647
I1
sF86738772
I1
sF57632598
I1
sF27862871
I1
sF2942808
I1
sF16099161
I1
sF2664285
I1
sF55109472
I1
sF62788052
I1
sF29026157
I1
sF21596015
I1
sF15812465
I1
sF77547380
I1
sF90194238
I1
sF15566711
I1
sF88893304
I1
sF64759695
I1
sF8841108
I1
sF74311574
I1
sF92653467
I1
sF25102239
I1
sF50685863
I1
sF18863772
I1
sF88631211
I1
sF37423022
I1
sF26978224
I1
sF77981619
I1
sF84902217
I1
sF81766336
I1
sF91631260
I1
sF2607043
I1
sF15476679
I1
sF7620552
I1
sF34613194
I1
sF92473292
I1
sF38291413
I1
sF87435225
I1
sF32237560
I1
sF37931033
I1
sF79095471
I1
sF91313842
I1
sF90214749
I1
sF23339358
I1
sF26675257
I1
sF84920380
I1
sF10294965
I1
sF8562752
I1
sF32892994
I1
sF19073091
I1
sF88221766
I1
sF46516301
I1
sF98846806
I1
sF20768858
I1
sF54429788
I1
sF21694557
I1
sF64039009
I1
sF46966882
I1
sF87660219
I1
sF16296043
I1
sF60590190
I1
sF37316723
I1
sF98478213
I1
sF59795595
I1
sF42567823
I1
sF61311132
I1
sF59992227
I1
sF97872040
I1
sF97716773
I1
sF90695858
I1
sF47319221
I1
sF26192057
I1
sF56314047
I1
sF76343489
I1
sF85895362
I1
sF69961926
I1
sF71313608
I1
sF46606543
I1
sF97872083
I1
sF60639447
I1
sF62802137
I1
sF47302875
I1
sF8407261
I1
sF6777057
I1
sF13650148
I1
sF3614954
I1
sF66995922
I1
sF85616878
I1
sF18504744
I1
sF62163192
I1
sF85862649
I1
sF94226686
I1
sF24496392
I1
sF90122506
I1
sF1419536
I1
sF40651029
I1
sF9824536
I1
sF96807194
I1
sF73247006
I1
sF53012778
I1
sF24258867
I1
sF17680700
I1
sF66881866
I1
sF83151184
I1
sF54621924
I1
sF58640731
I1
sF40044892
I1
sF30165341
I1
sF3983716
I1
sF11118951
I1
sF78481773
I1
sF85019299
I1
sF91923152
I1
sF32057728
I1
sF24177035
I1
sF74656142
I1
sF97429903
I1
sF29886870
I1
sF40470938
I1
sF66701723
I1
sF39004576
I1
sF44845476
I1
sF54208938
I1
sF64793004
I1
sF32287157
I1
sF22251960
I1
sF46295487
I1
sF9628096
I1
sF87927236
I1
sF21744069
I1
sF96446918
I1
sF64211407
I1
sF6416853
I1
sF25864671
I1
sF31607271
I1
sF8599293
I1
sF4655603
I1
sF99027447
I1
sF62974461
I1
sF87984639
I1
sF60017154
I1
sF22972931
I1
sF72886788
I1
sF96101912
I1
sF42068489
I1
sF95775244
I1
sF55478799
I1
sF62622226
I1
sF61712923
I1
sF62687772
I1
sF22940197
I1
sF90384934
I1
sF78260778
I1
sF58223150
I1
sF2632248
I1
sF96586306
I1
sF41667155
I1
sF37284457
I1
sF88148596
I1
sF43682425
I1
sF89107071
I1
sF25135746
I1
sF23854188
I1
sF73902734
I1
sF95054481
I1
sF9554580
I1
sF92540014
I1
sF48024219
I1
sF86829725
I1
sF55061155
I1
sF49695396
I1
sF27429550
I1
sF96070321
I1
sF78629561
I1
sF49679034
I1
sF8424126
I1
sF25684672
I1
sF96635585
I1
sF182983
I1
sF50686664
I1
sF37702348
I1
sF62819448
I1
sF47065810
I1
sF2378453
I1
sF34556631
I1
sF51653336
I1
sF29797084
I1
sF35072761
I1
sF75434756
I1
sF59804422
I1
sF95390477
I1
sF74861332
I1
sF75934485
I1
sF39152407
I1
sF69891887
I1
sF6818595
I1
sF95120164
I1
sF40758053
I1
sF9104175
I1
sF56978225
I1
sF1682236
I1
sF53103421
I1
sF59173698
I1
sF90707767
I1
sF64351052
I1
sF69028687
I1
sF26430290
I1
sF3960353
I1
sF59091798
I1
sF93129574
I1
sF31099758
I1
sF81750898
I1
sF24996723
I1
sF94546810
I1
sF6491003
I1
sF24710012
I1
sF47123325
I1
sF16542591
I1
sF60320643
I1
sF44944260
I1
sF60435342
I1
sF42916972
I1
sF78908310
I1
sF34458523
I1
sF39357342
I1
sF13716386
I1
sF77679530
I1
sF72018860
I1
sF88001458
I1
sF39431100
I1
sF96431038
I1
sF75271104
I1
sF27872196
I1
sF45697997
I1
sF71838672
I1
sF13134801
I1
sF30575570
I1
sF82144213
I1
sF72567768
I1
sF7105502
I1
sF80440290
I1
sF62778342
I1
sF96103399
I1
sF29354985
I1
sF91540465
I1
sF33401846
I1
sF19164151
I1
sF36336127
I1
sF13962237
I1
sF90772304
I1
sF64900267
I1
sF89287686
I1
sF49458183
I1
sF46418955
I1
sF85838865
I1
sF17910803
I1
sF64237658
I1
sF58117141
I1
sF72854551
I1
sF98839575
I1
sF26758173
I1
sF32771110
I1
sF6204460
I1
sF40143925
I1
sF92785739
I1
sF61598801
I1
sF73305176
I1
sF15051869
I1
sF75050079
I1
sF47205477
I1
sF83291241
I1
sF22809710
I1
sF48786552
I1
sF24333434
I1
sF9571452
I1
sF77155453
I1
sF88403071
I1
sF14093443
I1
sF15091565
I1
sF52677778
I1
sF40299668
I1
sF83946645
I1
sF32517278
I1
sF90959011
I1
sF83225764
I1
sF2059429
I1
sF96155505
I1
sF21540011
I1
sF67079346
I1
sF66301119
I1
sF53210306
I1
sF91161121
I1
sF14568648
I1
sF40479949
I1
sF35212496
I1
sF31558865
I1
sF40152289
I1
sF19840209
I1
sF48131306
I1
sF84888815
I1
sF92359935
I1
sF57109761
I1
sF68758788
I1
sF13888784
I1
sF30674194
I1
sF41626900
I1
sF45182232
I1
sF25701665
I1
sF67464482
I1
sF76033321
I1
sF19934526
I1
sF6171967
I1
sF8228164
I1
sF26643782
I1
sF55766343
I1
sF93261137
I1
sF12864852
I1
sF98454870
I1
sF14370703
I1
sF66858333
I1
sF48221546
I1
sF52907371
I1
sF69086573
I1
sF18533745
I1
sF70036851
I1
sF55946612
I1
sF36015483
I1
sF46804352
I1
sF96112012
I1
sF21884301
I1
sF78769578
I1
sF91295147
I1
sF45936044
I1
sF81104308
I1
sF68780617
I1
sF95732596
I1
sF51776956
I1
sF21024196
I1
sF97062343
I1
sF21736908
I1
sF29863376
I1
sF45919706
I1
sF65474011
I1
sF27037150
I1
sF93663
I1
sF1658337
I1
sF98020834
I1
sF32978856
I1
sF80047605
I1
sF88870396
I1
sF74780160
I1
sF55062019
I1
sF74092037
I1
sF70692364
I1
sF37948947
I1
sF7245333
I1
sF58535457
I1
sF84376838
I1
sF63794729
I1
sF94285360
I1
sF45575733
I1
sF16076350
I1
sF65908288
I1
sF51596866
I1
sF48172611
I1
sF20336197
I1
sF73010762
I1
sF22531665
I1
sF26414674
I1
sF47526499
I1
sF25366100
I1
sF67333719
I1
sF45428314
I1
sF47459931
I1
sF99683600
I1
sF29519462
I1
sF12791399
I1
sF59805294
I1
sF35794545
I1
sF74689812
I1
sF5918335
I1
sF12570244
I1
sF72126087
I1
sF88395400
I1
sF14749321
I1
sF25276045
I1
sF58986126
I1
sF87895698
I1
sF92917398
I1
sF88813208
I1
sF84586137
I1
sF72265371
I1
sF30428828
I1
sF72371874
I1
sF33640107
I1
sF84283053
I1
sF12406458
I1
sF56618684
I1
sF68710080
I1
sF24579777
I1
sF90492610
I1
sF75583172
I1
sF90517192
I1
sF90509003
I1
sF21630673
I1
sF34614995
I1
sF67112662
I1
sF12127962
I1
sF22108111
I1
sF22834908
I1
sF3436256
I1
sF82685666
I1
sF90443495
I1
sF88231656
I1
sF12955369
I1
sF87346935
I1
sF75050747
I1
sF6647551
I1
sF54226691
I1
sF20639494
I1
sF34410249
I1
sF69947154
I1
sF77672214
I1
sF91351001
I1
sF54939417
I1
sF24022812
I1
sF39620384
I1
sF76590881
I1
sF66744108
I1
sF69504816
I1
sF22499136
I1
sF62435149
I1
sF77123407
I1
sF8687443
I1
sF89404046
I1
sF12390230
I1
sF54243159
I1
sF44896088
I1
sF24342362
I1
sF4271964
I1
sF87527261
I1
sF48803688
I1
sF45363050
I1
sF33312619
I1
sF15871852
I1
sF31846253
I1
sF85159795
I1
sF51761016
I1
sF93851514
I1
sF54398847
I1
sF61247363
I1
sF67776390
I1
sF89968529
I1
sF93222896
I1
sF5410722
I1
sF33288109
I1
sF35999662
I1
sF93810607
I1
sF95301552
I1
sF89812914
I1
sF54431671
I1
sF24645564
I1
sF11644862
I1
sF31625154
I1
sF37072835
I1
sF12857287
I1
sF88494028
I1
sF593871
I1
sF26595280
I1
sF95989717
I1
sF71299032
I1
sF38236122
I1
sF22302700
I1
sF16175089
I1
sF43495410
I1
sF41480181
I1
sF78696438
I1
sF21082106
I1
sF88084483
I1
sF25546756
I1
sF64122897
I1
sF89108501
I1
sF83767319
I1
sF63778844
I1
sF44855328
I1
sF15626277
I1
sF75657255
I1
sF58175529
I1
sF38309931
I1
sF15314990
I1
sF42823728
I1
sF78352437
I1
sF72265790
I1
sF14130529
I1
sF21188683
I1
sF96931921
I1
sF13292217
I1
sF57757784
I1
sF28815450
I1
sF69734492
I1
sF99463265
I1
sF39678052
I1
sF18460778
I1
sF57856110
I1
sF85217398
I1
sF8409215
I1
sF28242048
I1
sF34705538
I1
sF37621892
I1
sF60231816
I1
sF42504329
I1
sF5509260
I1
sF26529133
I1
sF3289232
I1
sF25415832
I1
sF12955807
I1
sF3362976
I1
sF50950307
I1
sF20705455
I1
sF16814256
I1
sF42381492
I1
sF77836469
I1
sF61149366
I1
sF37679817
I1
sF72970425
I1
sF10178750
I1
sF95772021
I1
sF70144194
I1
sF12234947
I1
sF7565508
I1
sF82931912
I1
sF86323407
I1
sF9220304
I1
sF80736466
I1
sF91566292
I1
sF30519512
I1
sF78889679
I1
sF90697603
I1
sF90140895
I1
sF40685793
I1
sF73666802
I1
sF43274492
I1
sF9040125
I1
sF95637758
I1
sF86413567
I1
sF85946629
I1
sF7958790
I1
sF9941258
I1
sF65597712
I1
sF98980130
I1
sF33149228
I1
sF32829749
I1
sF7901494
I1
sF37941565
I1
sF15200576
I1
sF54899016
I1
sF53039441
I1
sF77427029
I1
sF84592697
I1
sF27039802
I1
sF66818404
I1
sF21221734
I1
sF41251178
I1
sF45240693
I1
sF87118205
I1
sF33392704
I1
sF84464006
I1
sF48525703
I1
sF74977673
I1
sF72208779
I1
sF13341082
I1
sF11628959
I1
sF35115425
I1
sF43028906
I1
sF1036722
I1
sF43536837
I1
sF21410551
I1
sF23974352
I1
sF61018577
I1
sF34083283
I1
sF18936276
I1
sF62034399
I1
sF4542948
I1
sF39334378
I1
sF20967931
I1
sF42791421
I1
sF37515775
I1
sF55357961
I1
sF41095694
I1
sF36803103
I1
sF69235232
I1
sF82238896
I1
sF324130
I1
sF13529637
I1
sF92992038
I1
sF15528489
I1
sF38851116
I1
sF14996017
I1
sF44782131
I1
sF45888054
I1
sF60027447
I1
sF35230266
I1
sF48067133
I1
sF67039809
I1
sF10269252
I1
sF79958600
I1
sF750154
I1
sF23319116
I1
sF78795343
I1
sF23163472
I1
sF19190360
I1
sF40915545
I1
sF627297
I1
sF50713187
I1
sF56013414
I1
sF36598385
I1
sF34787960
I1
sF32518778
I1
sF31527547
I1
sF12833406
I1
sF23499393
I1
sF69027947
I1
sF22303365
I1
sF49394310
I1
sF6370071
I1
sF48509580
I1
sF44741262
I1
sF39350931
I1
sF60084887
I1
sF26940064
I1
sF96744099
I1
sF62599848
I1
sF72135339
I1
sF56316588
I1
sF81367727
I1
sF29512371
I1
sF7951033
I1
sF5993148
I1
sF14668479
I1
sF45339329
I1
sF93926087
I1
sF73413321
I1
sF42447568
I1
sF64721618
I1
sF16356051
I1
sF76772053
I1
sF73724630
I1
sF94461746
I1
sF61813468
I1
sF37614304
I1
sF97604321
I1
sF49844965
I1
sF35795694
I1
sF40792819
I1
sF37950199
I1
sF91050750
I1
sF35427073
I1
sF59945739
I1
sF3945232
I1
sF77176280
I1
sF94679830
I1
sF68973335
I1
sF93385500
I1
sF58970917
I1
sF27702055
I1
sF80499502
I1
sF85824304
I1
sF99586868
I1
sF83171465
I1
sF77353786
I1
sF89797435
I1
sF56226630
I1
sF75674441
I1
sF27947854
I1
sF9384783
I1
sF41030480
I1
sF40366931
I1
sF8680277
I1
sF66999129
I1
sF7271260
I1
sF30970718
I1
sF22147936
I1
sF97473385
I1
sF91108205
I1
sF3978094
I1
sF99218290
I1
sF22689939
I1
sF25908084
I1
sF31413109
I1
sF51229563
I1
sF66237308
I1
sF35328896
I1
sF56071045
I1
sF94401414
I1
sF31118230
I1
sF8876955
I1
sF83613850
I1
sF51663777
I1
sF68055972
I1
sF71807915
I1
sF32617388
I1
sF73970613
I1
sF48108472
I1
sF52138939
I1
sF81310659
I1
sF80884678
I1
sF84382671
I1
sF28382160
I1
sF98014162
I1
sF18764767
I1
sF53818192
I1
sF50482939
I1
sF29488105
I1
sF35173355
I1
sF5272560
I1
sF64590838
I1
sF60290040
I1
sF10728450
I1
sF28095491
I1
sF47887364
I1
sF76600328
I1
sF74535949
I1
sF63665166
I1
sF62688771
I1
sF97473559
I1
sF7091226
I1
sF31683625
I1
sF45691949
I1
sF84399161
I1
sF65377338
I1
sF57447485
I1
sF93467713
I1
sF42865732
I1
sF9229384
I1
sF16577615
I1
sF77426763
I1
sF50656341
I1
sF40457302
I1
sF96291001
I1
sF32420953
I1
sF56841309
I1
sF91386979
I1
sF20018277
I1
sF51582058
I1
sF68138094
I1
sF15144048
I1
sF25965688
I1
sF47764602
I1
sF75835583
I1
sF61297789
I1
sF95694357
I1
sF87159936
I1
sF77911169
I1
sF56546434
I1
sF98997379
I1
sF86324358
I1
sF2086029
I1
sF95941775
I1
sF67384467
I1
sF75502743
I1
sF64763042
I1
sF93380123
I1
sF79975589
I1
sF21656743
I1
sF37658140
I1
sF76805290
I1
sF97227949
I1
sF17601720
I1
sF38933689
I1
sF39802053
I1
sF1494561
I1
sF54285517
I1
sF27999780
I1
sF64861405
I1
sF74519778
I1
sF8926437
I1
sF87061740
I1
sF87979255
I1
sF27956475
I1
sF85521671
I1
sF13751562
I1
sF11834638
I1
sF82392336
I1
sF68859156
I1
sF46471385
I1
sF41710872
I1
sF97056026
I1
sF7945775
I1
sF42546466
I1
sF61699369
I1
sF19428662
I1
sF35894584
I1
sF52098365
I1
sF65148222
I1
sF12703042
I1
sF12178755
I1
sF86078788
I1
sF49599815
I1
sF120140
I1
sF49968461
I1
sF42177877
I1
sF82736481
I1
sF10499429
I1
sF36959590
I1
sF2241897
I1
sF82138479
I1
sF4085106
I1
sF37369203
I1
sF46323060
I1
sF20813177
I1
sF41743740
I1
sF71669123
I1
sF43152776
I1
sF57996682
I1
sF59168143
I1
sF69580178
I1
sF94546158
I1
sF52508061
I1
sF13833642
I1
sF17003948
I1
sF80123310
I1
sF94380957
I1
sF49611678
I1
sF35739074
I1
sF8107471
I1
sF60298707
I1
sF42030555
I1
sF32249312
I1
sF39146987
I1
sF39269873
I1
sF98334202
I1
sF36271615
I1
sF82007554
I1
sF87719953
I1
sF64181765
I1
sF84635828
I1
sF56743437
I1
sF63903252
I1
sF49174038
I1
sF27063834
I1
sF81686106
I1
sF73659942
I1
sF47068711
I1
sF78722603
I1
sF84350511
I1
sF76343560
I1
sF86103603
I1
sF259641
I1
sF41825850
I1
sF70874684
I1
sF74266176
I1
sF77493826
I1
sF53999173
I1
sF521798
I1
sF92919370
I1
sF39597656
I1
sF43046491
I1
sF44545638
I1
sF53433970
I1
sF44602995
I1
sF31684212
I1
sF66549370
I1
sF22419072
I1
sF63609110
I1
sF24204943
I1
sF92116628
I1
sF95368854
I1
sF77436567
I1
sF8951451
I1
sF3471004
I1
sF91553392
I1
sF20149923
I1
sF45330033
I1
sF53581483
I1
sF20846256
I1
sF75822770
I1
sF23639733
I1
sF94410422
I1
sF48682683
I1
sF19240638
I1
sF81417922
I1
sF60454608
I1
sF25712339
I1
sF18749140
I1
sF31766231
I1
sF88486864
I1
sF2979555
I1
sF73627364
I1
sF94205669
I1
sF50566899
I1
sF65530154
I1
sF43677447
I1
sF49616650
I1
sF5764877
I1
sF69449494
I1
sF31749911
I1
sF10860315
I1
sF59119388
I1
sF42366750
I1
sF82515743
I1
sF77739812
I1
sF56014631
I1
sF6868615
I1
sF62650159
I1
sF34740022
I1
sF33173129
I1
sF88020795
I1
sF8886078
I1
sF19879746
I1
sF36525893
I1
sF24926024
I1
sF71630477
I1
sF53786450
I1
sF15013720
I1
sF68613977
I1
sF20576093
I1
sF80320353
I1
sF33118056
I1
sF47819068
I1
sF92166001
I1
sF97810296
I1
sF73144198
I1
sF47509368
I1
sF67901333
I1
sF8730520
I1
sF61069215
I1
sF24669851
I1
sF65525668
I1
sF44578726
I1
sF35575720
I1
sF87072412
I1
sF30644142
I1
sF91166645
I1
sF58652601
I1
sF92993473
I1
sF2454518
I1
sF42129359
I1
sF98392016
I1
sF34232286
I1
sF29743071
I1
sF38541280
I1
sF94740134
I1
sF27490283
I1
sF9140208
I1
sF92928479
I1
sF65320954
I1
sF32372740
I1
sF26073100
I1
sF19617807
I1
sF58660880
I1
sF93873155
I1
sF65057796
I1
sF95402010
I1
sF51042346
I1
sF58562612
I1
sF52582457
I1
sF6256698
I1
sF73611325
I1
sF26826824
I1
sF12433481
I1
sF6043727
I1
sF7329874
I1
sF33970260
I1
sF99547227
I1
sF55375966
I1
sF8119312
I1
sF79859388
I1
sF42260597
I1
sF32389244
I1
sF73373830
I1
sF24754313
I1
sF46536843
I1
sF11720851
I1
sF15374487
I1
sF219290
I1
sF21444766
I1
sF51927200
I1
sF11655336
I1
sF98941430
I1
sF81057965
I1
sF97179836
I1
sF13088957
I1
sF4266178
I1
sF41451211
I1
sF55711947
I1
sF61667533
I1
sF42768592
I1
sF63985876
I1
sF55513
I1
sF68204763
I1
sF58661087
I1
sF22247655
I1
sF26436647
I1
sF8067310
I1
sF645502
I1
sF25540854
I1
sF38091000
I1
sF30955792
I1
sF87759123
I1
sF69523732
I1
sF84859157
I1
sF10533142
I1
sF536282
I1
sF97999135
I1
sF31578404
I1
sF15251750
I1
sF7117097
I1
sF6895918
I1
sF59324719
I1
sF72235316
I1
sF20355385
I1
sF70711617
I1
sF62814530
I1
sF23869769
I1
sF702797
I1
sF95895546
I1
sF16095572
I1
sF10459502
I1
sF82221424
I1
sF62413176
I1
sF41556350
I1
sF86849919
I1
sF95361412
I1
sF33970568
I1
sF81279370
I1
sF11557259
I1
sF15833491
I1
sF45685142
I1
sF38525343
I1
sF4266402
I1
sF15440302
I1
sF57432499
I1
sF64698804
I1
sF23992758
I1
sF162235
I1
sF784828
I1
sF47684032
I1
sF33085893
I1
sF3905993
I1
sF99432908
I1
sF65124819
I1
sF29735383
I1
sF7641561
I1
sF42531290
I1
sF49912285
I1
sF57498079
I1
sF45469435
I1
sF59860049
I1
sF50993642
I1
sF66238956
I1
sF37829102
I1
sF17152497
I1
sF42654196
I1
sF9017846
I1
sF85365328
I1
sF95044693
I1
sF95410690
I1
sF53336580
I1
sF93207054
I1
sF1808914
I1
sF7281173
I1
sF95967766
I1
sF53470297
I1
sF74734109
I1
sF29653546
I1
sF72940080
I1
sF76544565
I1
sF64346684
I1
sF82221630
I1
sF54843967
I1
sF52550208
I1
sF47307341
I1
sF85138004
I1
sF71096919
I1
sF9091673
I1
sF18709084
I1
sF26794589
I1
sF4201055
I1
sF63912546
I1
sF7559779
I1
sF43809385
I1
sF72776307
I1
sF86657471
I1
sF18397820
I1
sF13204095
I1
sF92580288
I1
sF79501957
I1
sF13720204
I1
sF15702669
I1
sF4381328
I1
sF59177620
I1
sF96423705
I1
sF24582813
I1
sF60398238
I1
sF93510303
I1
sF8395428
I1
sF16038567
I1
sF37673642
I1
sF33913516
I1
sF60537520
I1
sF74955209
I1
sF31955640
I1
sF17881798
I1
sF28646095
I1
sF90823378
I1
sF2841300
I1
sF22166231
I1
sF43399898
I1
sF97274319
I1
sF43088605
I1
sF9001700
I1
sF41335525
I1
sF47618790
I1
sF76430059
I1
sF82303724
I1
sF10074862
I1
sF42154737
I1
sF35175158
I1
sF43760388
I1
sF8551178
I1
sF54909399
I1
sF75307788
I1
sF41130766
I1
sF37396269
I1
sF97039611
I1
sF90741210
I1
sF11574058
I1
sF27630381
I1
sF63626033
I1
sF4922171
I1
sF45218620
I1
sF7726219
I1
sF42793796
I1
sF55565131
I1
sF47962957
I1
sF44610701
I1
sF35527504
I1
sF30538580
I1
sF99785560
I1
sF59259745
I1
sF68942691
I1
sF57457508
I1
sF51813221
I1
sF96549741
I1
sF83049331
I1
sF342904
I1
sF11033472
I1
sF20454278
I1
sF75750292
I1
sF13130646
I1
sF16350107
I1
sF43768736
I1
sF37501862
I1
sF14408621
I1
sF57899951
I1
sF53255088
I1
sF88710066
I1
sF64551860
I1
sF50150327
I1
sF51911615
I1
sF39640003
I1
sF35199941
I1
sF58088391
I1
sF68721608
I1
sF11025365
I1
sF54049750
I1
sF77151044
I1
sF53033948
I1
sF52296669
I1
sF78184272
I1
sF94305262
I1
sF31464432
I1
sF49142770
I1
sF86237011
I1
sF84818932
I1
sF86195189
I1
sF86572046
I1
sF59087895
I1
sF61996056
I1
sF88696889
I1
sF22690856
I1
sF93240371
I1
sF38878263
I1
sF59751483
I1
sF65772605
I1
sF24460351
I1
sF53058624
I1
sF3292226
I1
sF75390020
I1
sF9083977
I1
sF94157899
I1
sF98221136
I1
sF15899733
I1
sF79043672
I1
sF27548761
I1
sF94215272
I1
sF61308010
I1
sF61758572
I1
sF87144978
I1
sF93982570
I1
sF85528427
I1
sF95088492
I1
sF9256079
I1
sF1055911
I1
sF71703726
I1
sF39443634
I1
sF94198963
I1
sF89267381
I1
sF81362107
I1
sF65846462
I1
sF14712013
I1
sF61078737
I1
sF75832541
I1
sF10914341
I1
sF71163108
I1
sF37084408
I1
sF69917946
I1
sF12623102
I1
sF90029311
I1
sF50429190
I1
sF42900746
I1
sF77045005
I1
sF37977362
I1
sF75234579
I1
sF87151833
I1
sF47586586
I1
sF87276837
I1
sF25656614
I1
sF26672424
I1
sF91487536
I1
sF9059637
I1
sF27024695
I1
sF3996995
I1
sF18365764
I1
sF42343751
I1
sF96591183
I1
sF50617680
I1
sF44403256
I1
sF60071252
I1
sF66190682
I1
sF57023836
I1
sF62537053
I1
sF41186533
I1
sF72416609
I1
sF51846504
I1
sF3603822
I1
sF23805295
I1
sF90577470
I1
sF63954295
I1
sF51172342
I1
sF71662983
I1
sF73966828
I1
sF65478031
I1
sF48946594
I1
sF18611622
I1
sF3767728
I1
sF98840482
I1
sF61693395
I1
sF13573588
I1
sF14400984
I1
sF98172381
I1
sF94354911
I1
sF7044577
I1
sF83631587
I1
sF39525862
I1
sF56655339
I1
sF69115372
I1
sF35126765
I1
sF10829294
I1
sF18595312
I1
sF16702962
I1
sF57130491
I1
sF76815870
I1
sF74898945
I1
sF83303938
I1
sF597522
I1
sF83516955
I1
sF70245916
I1
sF3587616
I1
sF57122340
I1
sF47652394
I1
sF46325292
I1
sF63281757
I1
sF21413428
I1
sF62332473
I1
sF81599071
I1
sF94477886
I1
sF65756735
I1
sF69230149
I1
sF7020103
I1
sF71024201
I1
sF47382091
I1
sF37477964
I1
sF95878733
I1
sF80125532
I1
sF95002207
I1
sF97893987
I1
sF16416361
I1
sF33537233
I1
sF51232363
I1
sF41352813
I1
sF8863344
I1
sF29040245
I1
sF8388221
I1
sF7487106
I1
sF72408707
I1
sF4775559
I1
sF88577303
I1
sF59850380
I1
sF9624684
I1
sF99921859
I1
sF79462038
I1
sF38338201
I1
sF68787868
I1
sF1351329
I1
sF39296678
I1
sF90398376
I1
sF89333419
I1
sF3948205
I1
sF86654638
I1
sF68378288
I1
sF52084402
I1
sF86441655
I1
sF49471164
I1
sF86687423
I1
sF83992258
I1
sF24493771
I1
sF47816397
I1
sF89636566
I1
sF42819293
I1
sF15367904
I1
sF4456162
I1
sF97279718
I1
sF25730798
I1
sF59997946
I1
sF86760063
I1
sF302847
I1
sF35921664
I1
sF88580113
I1
sF171783
I1
sF30796418
I1
sF15769362
I1
sF48774931
I1
sF99483420
I1
sF95772634
I1
sF36134689
I1
sF20832034
I1
sF42229540
I1
sF60849960
I1
sF62521133
I1
sF72474416
I1
sF99598129
I1
sF8019762
I1
sF39419707
I1
sF47103804
I1
sF75317054
I1
sF95814965
I1
sF36314946
I1
sF45694787
I1
sF6192967
I1
sF24985424
I1
sF95567697
I1
sF16572243
I1
sF36773720
I1
sF57950041
I1
sF7266140
I1
sF32309087
I1
sF60530530
I1
sF79216494
I1
sF2236275
I1
sF32579448
I1
sF58171265
I1
sF87433091
I1
sF2334603
I1
sF39657385
I1
sF73203651
I1
sF85622731
I1
sF75669459
I1
sF18964438
I1
sF36028378
I1
sF30474234
I1
sF56262623
I1
sF41566178
I1
sF63938532
I1
sF14573541
I1
sF58965991
I1
sF87859176
I1
sF1155050
I1
sF9601003
I1
sF27828208
I1
sF37306362
I1
sF64782333
I1
sF57054549
I1
ssS'chf'
p4
(dp5
F45649409
I1
sF95410690
I1
sF68055638
I1
sF13839879
I1
sF27606024
I1
sF10817033
I1
sF24075787
I1
sF26073100
I1
sF53039441
I1
sF52461585
I1
sF9427987
I1
sF63903252
I1
sF71703726
I1
sF95967766
I1
sF71929368
I1
sF32864793
I1
sF7091226
I1
sF93380123
I1
sF37658140
I1
sF81686106
I1
sF17702942
I1
sF57205509
I1
sF74351649
I1
sF71967778
I1
sF47459931
I1
sF27999780
I1
sF27890213
I1
sF99027447
I1
sF22626855
I1
sF22249001
I1
sF41366023
I1
sF468013
I1
sF11963439
I1
sF72940080
I1
sF45180465
I1
sF94198963
I1
sF3041334
I1
sF34868489
I1
sF6076472
I1
sF52582457
I1
sF65377338
I1
sF95002207
I1
sF42900746
I1
sF5813311
I1
sF8562752
I1
sF36229131
I1
sF47610436
I1
sF56649285
I1
sF521798
I1
sF53223521
I1
sF26029128
I1
sF27445833
I1
sF77426763
I1
sF18527821
I1
sF3591246
I1
sF37817936
I1
sF65309267
I1
sF93471889
I1
sF91507285
I1
sF48595133
I1
sF12027480
I1
sF53470297
I1
sF74794586
I1
sF32597083
I1
sF91532380
I1
sF56654942
I1
sF82706527
I1
sF50373759
I1
sF91386979
I1
sF70343079
I1
sF784828
I1
sF87927143
I1
sF21598828
I1
sF47820477
I1
sF15144048
I1
sF70599793
I1
sF52608115
I1
sF8775288
I1
sF32518778
I1
sF66301119
I1
sF32389244
I1
sF61699369
I1
sF13554303
I1
sF12251777
I1
sF97384357
I1
sF98478213
I1
sF33173129
I1
sF76082455
I1
sF62466188
I1
sF44610701
I1
sF47030929
I1
sF32416914
I1
sF9554580
I1
sF54939417
I1
sF27977881
I1
sF219290
I1
sF91631260
I1
sF68590750
I1
sF12955807
I1
sF1351329
I1
sF55061155
I1
sF9619620
I1
sF39027366
I1
sF64039009
I1
sF37806760
I1
sF34787960
I1
sF21540011
I1
sF40721372
I1
sF30015661
I1
sF22453422
I1
sF91682845
I1
sF93962448
I1
sF83049331
I1
sF42381492
I1
sF68901918
I1
sF26192057
I1
sF5028541
I1
sF56314047
I1
sF51973312
I1
sF65597712
I1
sF87972546
I1
sF58241870
I1
sF77579762
I1
sF88976504
I1
sF24493771
I1
sF14712013
I1
sF36228303
I1
sF4417744
I1
sF21630673
I1
sF47065810
I1
sF34614995
I1
sF78116351
I1
sF22166231
I1
sF28820699
I1
sF66549370
I1
sF68665381
I1
sF40152289
I1
sF84350511
I1
sF60024548
I1
sF27788006
I1
sF33537233
I1
sF44052015
I1
sF77179175
I1
sF91717868
I1
sF25730798
I1
sF96789373
I1
sF43450608
I1
sF73666802
I1
sF52567796
I1
sF29412597
I1
sF45959977
I1
sF45620984
I1
sF29033428
I1
sF13442811
I1
sF26767612
I1
sF18158846
I1
sF89613519
I1
sF5293314
I1
sF92651563
I1
sF37136132
I1
sF46746070
I1
sF57441750
I1
sF12891913
I1
sF9941258
I1
sF75572491
I1
sF66579214
I1
sF96560741
I1
sF20546832
I1
sF62607480
I1
sF72235316
I1
sF60066067
I1
sF9539860
I1
sF81175248
I1
sF69449494
I1
sF38340375
I1
sF68207231
I1
sF44944260
I1
sF62096666
I1
sF7945775
I1
sF83417125
I1
sF71164192
I1
sF63496481
I1
sF48442326
I1
sF4272421
I1
sF27702055
I1
sF86679848
I1
sF2563036
I1
sF84399161
I1
sF51629358
I1
sF54173999
I1
sF69504816
I1
sF8019762
I1
sF4408116
I1
sF9059637
I1
sF18394932
I1
sF28308794
I1
sF39419707
I1
sF21891900
I1
sF90194238
I1
sF86983477
I1
sF88262112
I1
sF19879746
I1
sF89901892
I1
sF88696889
I1
sF94117123
I1
sF81273161
I1
sF7790410
I1
sF48122187
I1
sF120140
I1
sF85835085
I1
sF32186190
I1
sF77123407
I1
sF80856891
I1
sF50113592
I1
sF82264005
I1
sF43108361
I1
sF71750713
I1
sF20355385
I1
sF99785560
I1
sF68613977
I1
sF22842717
I1
sF62915967
I1
sF75832541
I1
sF47632187
I1
sF57457508
I1
sF11118951
I1
sF884585
I1
sF31099758
I1
sF92166001
I1
sF3348850
I1
sF24996723
I1
sF95732596
I1
sF4516725
I1
sF90214749
I1
sF51761016
I1
sF82958713
I1
sF94546810
I1
sF70767930
I1
sF24710012
I1
sF22263677
I1
sF60346632
I1
sF28353407
I1
sF11033472
I1
sF77436567
I1
sF68094955
I1
sF30371716
I1
sF67814898
I1
sF43152776
I1
sF75502743
I1
sF81750898
I1
sF62814530
I1
sF74656142
I1
sF97429903
I1
sF26977682
I1
sF48172611
I1
sF38338201
I1
sF69987396
I1
sF92988152
I1
sF36689562
I1
sF25102239
I1
sF4266402
I1
sF71163108
I1
sF10985894
I1
sF49951143
I1
sF15879081
I1
sF10894250
I1
sF11220908
I1
sF49142770
I1
sF41800605
I1
sF52847536
I1
sF150450
I1
sF57432499
I1
sF64698804
I1
sF91166645
I1
sF23992758
I1
sF35286431
I1
sF24645564
I1
sF43536837
I1
sF99272134
I1
sF7620552
I1
sF48448458
I1
sF52195575
I1
sF88486864
I1
sF23318993
I1
sF61667533
I1
sF18936276
I1
sF25571406
I1
sF18964438
I1
sF97301917
I1
sF78381732
I1
sF13323228
I1
sF86867370
I1
sF38541280
I1
sF61047267
I1
sF34524132
I1
sF51771879
I1
sF59541756
I1
sF27161208
I1
sF40072683
I1
sF98611695
I1
sF60909553
I1
sF15417842
I1
sF41480181
I1
sF78696438
I1
sF27184631
I1
sF20918777
I1
sF10620411
I1
sF19431932
I1
sF11538941
I1
sF68710080
I1
sF20728319
I1
ss.